
BLE_HeartRate.elf:     file format elf32-littlearm

Sections:
Idx Name          Size      VMA       LMA       File off  Algn
  0 .isr_vector   0000013c  08000000  08000000  00010000  2**0
                  CONTENTS, ALLOC, LOAD, READONLY, DATA
  1 .text         00004dac  0800013c  0800013c  0001013c  2**2
                  CONTENTS, ALLOC, LOAD, READONLY, CODE
  2 .rodata       00000298  08004ee8  08004ee8  00014ee8  2**2
                  CONTENTS, ALLOC, LOAD, READONLY, DATA
  3 .init_array   00000004  08005180  08005180  00015180  2**2
                  CONTENTS, ALLOC, LOAD, DATA
  4 .fini_array   00000004  08005184  08005184  00015184  2**2
                  CONTENTS, ALLOC, LOAD, DATA
  5 .data         00000030  20000008  08005188  00020008  2**2
                  CONTENTS, ALLOC, LOAD, DATA
  6 BLE_DRIVER_CONTEXT 0000003d  20000038  080051b8  00020038  2**2
                  CONTENTS, ALLOC, LOAD, DATA
  7 SYSTEM_DRIVER_CONTEXT 00000011  20000078  080051f5  00020078  2**2
                  CONTENTS, ALLOC, LOAD, DATA
  8 .bss          000005e4  2000008c  08005206  0002008c  2**2
                  ALLOC
  9 ._user_heap_stack 00001400  20000670  08005206  00020670  2**0
                  ALLOC
 10 .ARM.attributes 00000030  00000000  00000000  00020089  2**0
                  CONTENTS, READONLY
 11 MAPPING_TABLE 00000028  20030000  20030000  00030000  2**2
                  ALLOC
 12 MB_MEM1       000001bc  20030028  20030028  00030000  2**2
                  ALLOC
 13 MB_MEM2       00000883  200301e4  200301e4  00030000  2**2
                  ALLOC
 14 .comment      00000050  00000000  00000000  000200b9  2**0
                  CONTENTS, READONLY
 15 .debug_frame  00000094  00000000  00000000  0002010c  2**2
                  CONTENTS, READONLY, DEBUGGING, OCTETS

Disassembly of section .text:

0800013c <__do_global_dtors_aux>:
 800013c:	b510      	push	{r4, lr}
 800013e:	4c05      	ldr	r4, [pc, #20]	; (8000154 <__do_global_dtors_aux+0x18>)
 8000140:	7823      	ldrb	r3, [r4, #0]
 8000142:	b933      	cbnz	r3, 8000152 <__do_global_dtors_aux+0x16>
 8000144:	4b04      	ldr	r3, [pc, #16]	; (8000158 <__do_global_dtors_aux+0x1c>)
 8000146:	b113      	cbz	r3, 800014e <__do_global_dtors_aux+0x12>
 8000148:	4804      	ldr	r0, [pc, #16]	; (800015c <__do_global_dtors_aux+0x20>)
 800014a:	f3af 8000 	nop.w
 800014e:	2301      	movs	r3, #1
 8000150:	7023      	strb	r3, [r4, #0]
 8000152:	bd10      	pop	{r4, pc}
 8000154:	2000008c 	.word	0x2000008c
 8000158:	00000000 	.word	0x00000000
 800015c:	08004ed0 	.word	0x08004ed0

08000160 <frame_dummy>:
 8000160:	b508      	push	{r3, lr}
 8000162:	4b03      	ldr	r3, [pc, #12]	; (8000170 <frame_dummy+0x10>)
 8000164:	b11b      	cbz	r3, 800016e <frame_dummy+0xe>
 8000166:	4903      	ldr	r1, [pc, #12]	; (8000174 <frame_dummy+0x14>)
 8000168:	4803      	ldr	r0, [pc, #12]	; (8000178 <frame_dummy+0x18>)
 800016a:	f3af 8000 	nop.w
 800016e:	bd08      	pop	{r3, pc}
 8000170:	00000000 	.word	0x00000000
 8000174:	20000090 	.word	0x20000090
 8000178:	08004ed0 	.word	0x08004ed0

0800017c <strcmp>:
 800017c:	f810 2b01 	ldrb.w	r2, [r0], #1
 8000180:	f811 3b01 	ldrb.w	r3, [r1], #1
 8000184:	2a01      	cmp	r2, #1
 8000186:	bf28      	it	cs
 8000188:	429a      	cmpcs	r2, r3
 800018a:	d0f7      	beq.n	800017c <strcmp>
 800018c:	1ad0      	subs	r0, r2, r3
 800018e:	4770      	bx	lr

08000190 <LL_AHB2_GRP1_EnableClock>:
 8000190:	f04f 43b0 	mov.w	r3, #1476395008	; 0x58000000
 8000194:	b082      	sub	sp, #8
 8000196:	6cda      	ldr	r2, [r3, #76]	; 0x4c
 8000198:	4302      	orrs	r2, r0
 800019a:	64da      	str	r2, [r3, #76]	; 0x4c
 800019c:	6cdb      	ldr	r3, [r3, #76]	; 0x4c
 800019e:	4018      	ands	r0, r3
 80001a0:	9001      	str	r0, [sp, #4]
 80001a2:	9b01      	ldr	r3, [sp, #4]
 80001a4:	b002      	add	sp, #8
 80001a6:	4770      	bx	lr

080001a8 <LL_C2_AHB2_GRP1_EnableClock>:
 80001a8:	f04f 43b0 	mov.w	r3, #1476395008	; 0x58000000
 80001ac:	b082      	sub	sp, #8
 80001ae:	f8d3 214c 	ldr.w	r2, [r3, #332]	; 0x14c
 80001b2:	4302      	orrs	r2, r0
 80001b4:	f8c3 214c 	str.w	r2, [r3, #332]	; 0x14c
 80001b8:	f8d3 314c 	ldr.w	r3, [r3, #332]	; 0x14c
 80001bc:	4018      	ands	r0, r3
 80001be:	9001      	str	r0, [sp, #4]
 80001c0:	9b01      	ldr	r3, [sp, #4]
 80001c2:	b002      	add	sp, #8
 80001c4:	4770      	bx	lr
	...

080001c8 <APPD_Init>:
 80001c8:	b5f0      	push	{r4, r5, r6, r7, lr}
 80001ca:	b08b      	sub	sp, #44	; 0x2c
 80001cc:	2203      	movs	r2, #3
 80001ce:	2400      	movs	r4, #0
 80001d0:	f04f 45b0 	mov.w	r5, #1476395008	; 0x58000000
 80001d4:	f44f 4360 	mov.w	r3, #57344	; 0xe000
 80001d8:	2001      	movs	r0, #1
 80001da:	e9cd 3200 	strd	r3, r2, [sp]
 80001de:	4669      	mov	r1, sp
 80001e0:	e9cd 4402 	strd	r4, r4, [sp, #8]
 80001e4:	9404      	str	r4, [sp, #16]
 80001e6:	f7ff ffd3 	bl	8000190 <LL_AHB2_GRP1_EnableClock>
 80001ea:	f04f 4090 	mov.w	r0, #1207959552	; 0x48000000
 80001ee:	f001 fd93 	bl	8001d18 <HAL_GPIO_Init>
 80001f2:	6ceb      	ldr	r3, [r5, #76]	; 0x4c
 80001f4:	4f3a      	ldr	r7, [pc, #232]	; (80002e0 <APPD_Init+0x118>)
 80001f6:	f023 0301 	bic.w	r3, r3, #1
 80001fa:	64eb      	str	r3, [r5, #76]	; 0x4c
 80001fc:	2002      	movs	r0, #2
 80001fe:	2318      	movs	r3, #24
 8000200:	4669      	mov	r1, sp
 8000202:	9300      	str	r3, [sp, #0]
 8000204:	f7ff ffc4 	bl	8000190 <LL_AHB2_GRP1_EnableClock>
 8000208:	4835      	ldr	r0, [pc, #212]	; (80002e0 <APPD_Init+0x118>)
 800020a:	f001 fd85 	bl	8001d18 <HAL_GPIO_Init>
 800020e:	6ceb      	ldr	r3, [r5, #76]	; 0x4c
 8000210:	f023 0302 	bic.w	r3, r3, #2
 8000214:	64eb      	str	r3, [r5, #76]	; 0x4c
 8000216:	f001 fc09 	bl	8001a2c <HAL_DBGMCU_DisableDBGSleepMode>
 800021a:	f001 fc0f 	bl	8001a3c <HAL_DBGMCU_DisableDBGStopMode>
 800021e:	f001 fc15 	bl	8001a4c <HAL_DBGMCU_DisableDBGStandbyMode>
 8000222:	2214      	movs	r2, #20
 8000224:	4621      	mov	r1, r4
 8000226:	eb0d 0002 	add.w	r0, sp, r2
 800022a:	f004 fe49 	bl	8004ec0 <memset>
 800022e:	482d      	ldr	r0, [pc, #180]	; (80002e4 <APPD_Init+0x11c>)
 8000230:	f8df c0b4 	ldr.w	ip, [pc, #180]	; 80002e8 <APPD_Init+0x120>
 8000234:	4621      	mov	r1, r4
 8000236:	4625      	mov	r5, r4
 8000238:	4626      	mov	r6, r4
 800023a:	eb00 03c1 	add.w	r3, r0, r1, lsl #3
 800023e:	799a      	ldrb	r2, [r3, #6]
 8000240:	b152      	cbz	r2, 8000258 <APPD_Init+0x90>
 8000242:	f850 2031 	ldr.w	r2, [r0, r1, lsl #3]
 8000246:	42ba      	cmp	r2, r7
 8000248:	d043      	beq.n	80002d2 <APPD_Init+0x10a>
 800024a:	4562      	cmp	r2, ip
 800024c:	d044      	beq.n	80002d8 <APPD_Init+0x110>
 800024e:	f1b2 4f90 	cmp.w	r2, #1207959552	; 0x48000000
 8000252:	d101      	bne.n	8000258 <APPD_Init+0x90>
 8000254:	889b      	ldrh	r3, [r3, #4]
 8000256:	431e      	orrs	r6, r3
 8000258:	3101      	adds	r1, #1
 800025a:	2926      	cmp	r1, #38	; 0x26
 800025c:	d1ed      	bne.n	800023a <APPD_Init+0x72>
 800025e:	2001      	movs	r0, #1
 8000260:	2303      	movs	r3, #3
 8000262:	9006      	str	r0, [sp, #24]
 8000264:	9308      	str	r3, [sp, #32]
 8000266:	b186      	cbz	r6, 800028a <APPD_Init+0xc2>
 8000268:	9605      	str	r6, [sp, #20]
 800026a:	f7ff ff91 	bl	8000190 <LL_AHB2_GRP1_EnableClock>
 800026e:	2001      	movs	r0, #1
 8000270:	f7ff ff9a 	bl	80001a8 <LL_C2_AHB2_GRP1_EnableClock>
 8000274:	a905      	add	r1, sp, #20
 8000276:	f04f 4090 	mov.w	r0, #1207959552	; 0x48000000
 800027a:	f001 fd4d 	bl	8001d18 <HAL_GPIO_Init>
 800027e:	2200      	movs	r2, #0
 8000280:	4631      	mov	r1, r6
 8000282:	f04f 4090 	mov.w	r0, #1207959552	; 0x48000000
 8000286:	f001 fdfd 	bl	8001e84 <HAL_GPIO_WritePin>
 800028a:	b17d      	cbz	r5, 80002ac <APPD_Init+0xe4>
 800028c:	2002      	movs	r0, #2
 800028e:	9505      	str	r5, [sp, #20]
 8000290:	f7ff ff7e 	bl	8000190 <LL_AHB2_GRP1_EnableClock>
 8000294:	2002      	movs	r0, #2
 8000296:	f7ff ff87 	bl	80001a8 <LL_C2_AHB2_GRP1_EnableClock>
 800029a:	a905      	add	r1, sp, #20
 800029c:	4810      	ldr	r0, [pc, #64]	; (80002e0 <APPD_Init+0x118>)
 800029e:	f001 fd3b 	bl	8001d18 <HAL_GPIO_Init>
 80002a2:	480f      	ldr	r0, [pc, #60]	; (80002e0 <APPD_Init+0x118>)
 80002a4:	2200      	movs	r2, #0
 80002a6:	4629      	mov	r1, r5
 80002a8:	f001 fdec 	bl	8001e84 <HAL_GPIO_WritePin>
 80002ac:	b17c      	cbz	r4, 80002ce <APPD_Init+0x106>
 80002ae:	2004      	movs	r0, #4
 80002b0:	9405      	str	r4, [sp, #20]
 80002b2:	f7ff ff6d 	bl	8000190 <LL_AHB2_GRP1_EnableClock>
 80002b6:	2004      	movs	r0, #4
 80002b8:	f7ff ff76 	bl	80001a8 <LL_C2_AHB2_GRP1_EnableClock>
 80002bc:	a905      	add	r1, sp, #20
 80002be:	480a      	ldr	r0, [pc, #40]	; (80002e8 <APPD_Init+0x120>)
 80002c0:	f001 fd2a 	bl	8001d18 <HAL_GPIO_Init>
 80002c4:	4808      	ldr	r0, [pc, #32]	; (80002e8 <APPD_Init+0x120>)
 80002c6:	2200      	movs	r2, #0
 80002c8:	4621      	mov	r1, r4
 80002ca:	f001 fddb 	bl	8001e84 <HAL_GPIO_WritePin>
 80002ce:	b00b      	add	sp, #44	; 0x2c
 80002d0:	bdf0      	pop	{r4, r5, r6, r7, pc}
 80002d2:	889b      	ldrh	r3, [r3, #4]
 80002d4:	431d      	orrs	r5, r3
 80002d6:	e7bf      	b.n	8000258 <APPD_Init+0x90>
 80002d8:	889b      	ldrh	r3, [r3, #4]
 80002da:	431c      	orrs	r4, r3
 80002dc:	e7bc      	b.n	8000258 <APPD_Init+0x90>
 80002de:	bf00      	nop
 80002e0:	48000400 	.word	0x48000400
 80002e4:	08004f60 	.word	0x08004f60
 80002e8:	48000800 	.word	0x48000800

080002ec <APPD_EnableCPU2>:
 80002ec:	b570      	push	{r4, r5, r6, lr}
 80002ee:	4b0c      	ldr	r3, [pc, #48]	; (8000320 <APPD_EnableCPU2+0x34>)
 80002f0:	b088      	sub	sp, #32
 80002f2:	aa01      	add	r2, sp, #4
 80002f4:	f103 0618 	add.w	r6, r3, #24
 80002f8:	4615      	mov	r5, r2
 80002fa:	6818      	ldr	r0, [r3, #0]
 80002fc:	6859      	ldr	r1, [r3, #4]
 80002fe:	4614      	mov	r4, r2
 8000300:	c403      	stmia	r4!, {r0, r1}
 8000302:	3308      	adds	r3, #8
 8000304:	42b3      	cmp	r3, r6
 8000306:	4622      	mov	r2, r4
 8000308:	d1f7      	bne.n	80002fa <APPD_EnableCPU2+0xe>
 800030a:	8819      	ldrh	r1, [r3, #0]
 800030c:	789b      	ldrb	r3, [r3, #2]
 800030e:	8021      	strh	r1, [r4, #0]
 8000310:	70a3      	strb	r3, [r4, #2]
 8000312:	f004 fc0b 	bl	8004b2c <TL_TRACES_Init>
 8000316:	4628      	mov	r0, r5
 8000318:	f004 f93e 	bl	8004598 <SHCI_C2_DEBUG_Init>
 800031c:	b008      	add	sp, #32
 800031e:	bd70      	pop	{r4, r5, r6, pc}
 8000320:	08004ee8 	.word	0x08004ee8

08000324 <APPE_SysStatusNot>:
 8000324:	4770      	bx	lr
	...

08000328 <RxCpltCallback>:
 8000328:	b570      	push	{r4, r5, r6, lr}
 800032a:	4d1c      	ldr	r5, [pc, #112]	; (800039c <RxCpltCallback+0x74>)
 800032c:	882b      	ldrh	r3, [r5, #0]
 800032e:	2bff      	cmp	r3, #255	; 0xff
 8000330:	d815      	bhi.n	800035e <RxCpltCallback+0x36>
 8000332:	4a1b      	ldr	r2, [pc, #108]	; (80003a0 <RxCpltCallback+0x78>)
 8000334:	4c1b      	ldr	r4, [pc, #108]	; (80003a4 <RxCpltCallback+0x7c>)
 8000336:	7812      	ldrb	r2, [r2, #0]
 8000338:	2a0d      	cmp	r2, #13
 800033a:	d12a      	bne.n	8000392 <RxCpltCallback+0x6a>
 800033c:	491a      	ldr	r1, [pc, #104]	; (80003a8 <RxCpltCallback+0x80>)
 800033e:	4620      	mov	r0, r4
 8000340:	f7ff ff1c 	bl	800017c <strcmp>
 8000344:	b998      	cbnz	r0, 800036e <RxCpltCallback+0x46>
 8000346:	4819      	ldr	r0, [pc, #100]	; (80003ac <RxCpltCallback+0x84>)
 8000348:	4b19      	ldr	r3, [pc, #100]	; (80003b0 <RxCpltCallback+0x88>)
 800034a:	6003      	str	r3, [r0, #0]
 800034c:	f001 fcd6 	bl	8001cfc <HAL_EXTI_GenerateSWI>
 8000350:	2100      	movs	r1, #0
 8000352:	4814      	ldr	r0, [pc, #80]	; (80003a4 <RxCpltCallback+0x7c>)
 8000354:	8029      	strh	r1, [r5, #0]
 8000356:	f44f 7280 	mov.w	r2, #256	; 0x100
 800035a:	f004 fdb1 	bl	8004ec0 <memset>
 800035e:	e8bd 4070 	ldmia.w	sp!, {r4, r5, r6, lr}
 8000362:	4b14      	ldr	r3, [pc, #80]	; (80003b4 <RxCpltCallback+0x8c>)
 8000364:	490e      	ldr	r1, [pc, #56]	; (80003a0 <RxCpltCallback+0x78>)
 8000366:	2201      	movs	r2, #1
 8000368:	2000      	movs	r0, #0
 800036a:	f000 bc5d 	b.w	8000c28 <HW_UART_Receive_IT>
 800036e:	4912      	ldr	r1, [pc, #72]	; (80003b8 <RxCpltCallback+0x90>)
 8000370:	4620      	mov	r0, r4
 8000372:	f7ff ff03 	bl	800017c <strcmp>
 8000376:	b918      	cbnz	r0, 8000380 <RxCpltCallback+0x58>
 8000378:	480c      	ldr	r0, [pc, #48]	; (80003ac <RxCpltCallback+0x84>)
 800037a:	f04f 53b0 	mov.w	r3, #369098752	; 0x16000000
 800037e:	e7e4      	b.n	800034a <RxCpltCallback+0x22>
 8000380:	490e      	ldr	r1, [pc, #56]	; (80003bc <RxCpltCallback+0x94>)
 8000382:	4620      	mov	r0, r4
 8000384:	f7ff fefa 	bl	800017c <strcmp>
 8000388:	2800      	cmp	r0, #0
 800038a:	d1e1      	bne.n	8000350 <RxCpltCallback+0x28>
 800038c:	4807      	ldr	r0, [pc, #28]	; (80003ac <RxCpltCallback+0x84>)
 800038e:	4b0c      	ldr	r3, [pc, #48]	; (80003c0 <RxCpltCallback+0x98>)
 8000390:	e7db      	b.n	800034a <RxCpltCallback+0x22>
 8000392:	1c59      	adds	r1, r3, #1
 8000394:	54e2      	strb	r2, [r4, r3]
 8000396:	8029      	strh	r1, [r5, #0]
 8000398:	e7e1      	b.n	800035e <RxCpltCallback+0x36>
 800039a:	bf00      	nop
 800039c:	200001b8 	.word	0x200001b8
 80003a0:	200001a8 	.word	0x200001a8
 80003a4:	200000a8 	.word	0x200000a8
 80003a8:	08005090 	.word	0x08005090
 80003ac:	200001b0 	.word	0x200001b0
 80003b0:	16000004 	.word	0x16000004
 80003b4:	08000329 	.word	0x08000329
 80003b8:	08005094 	.word	0x08005094
 80003bc:	08005098 	.word	0x08005098
 80003c0:	16000001 	.word	0x16000001

080003c4 <APPE_SysUserEvtRx>:
 80003c4:	b530      	push	{r4, r5, lr}
 80003c6:	6843      	ldr	r3, [r0, #4]
 80003c8:	f8b3 300b 	ldrh.w	r3, [r3, #11]
 80003cc:	f5b3 4f12 	cmp.w	r3, #37376	; 0x9200
 80003d0:	b089      	sub	sp, #36	; 0x24
 80003d2:	4604      	mov	r4, r0
 80003d4:	d126      	bne.n	8000424 <APPE_SysUserEvtRx+0x60>
 80003d6:	4668      	mov	r0, sp
 80003d8:	f004 f8fa 	bl	80045d0 <SHCI_GetWirelessFwInfo>
 80003dc:	2210      	movs	r2, #16
 80003de:	2100      	movs	r1, #0
 80003e0:	eb0d 0002 	add.w	r0, sp, r2
 80003e4:	f004 fd6c 	bl	8004ec0 <memset>
 80003e8:	6863      	ldr	r3, [r4, #4]
 80003ea:	7b5d      	ldrb	r5, [r3, #13]
 80003ec:	b9e5      	cbnz	r5, 8000428 <APPE_SysUserEvtRx+0x64>
 80003ee:	f7ff ff7d 	bl	80002ec <APPD_EnableCPU2>
 80003f2:	230f      	movs	r3, #15
 80003f4:	4a0f      	ldr	r2, [pc, #60]	; (8000434 <APPE_SysUserEvtRx+0x70>)
 80003f6:	f88d 3010 	strb.w	r3, [sp, #16]
 80003fa:	237f      	movs	r3, #127	; 0x7f
 80003fc:	f88d 3012 	strb.w	r3, [sp, #18]
 8000400:	6813      	ldr	r3, [r2, #0]
 8000402:	0c1b      	lsrs	r3, r3, #16
 8000404:	f8ad 301c 	strh.w	r3, [sp, #28]
 8000408:	6813      	ldr	r3, [r2, #0]
 800040a:	a804      	add	r0, sp, #16
 800040c:	f3c3 030b 	ubfx	r3, r3, #0, #12
 8000410:	f8ad 301e 	strh.w	r3, [sp, #30]
 8000414:	f004 f8ce 	bl	80045b4 <SHCI_C2_Config>
 8000418:	f000 fef8 	bl	800120c <APP_BLE_Init>
 800041c:	4629      	mov	r1, r5
 800041e:	2001      	movs	r0, #1
 8000420:	f004 fbb2 	bl	8004b88 <UTIL_LPM_SetOffMode>
 8000424:	b009      	add	sp, #36	; 0x24
 8000426:	bd30      	pop	{r4, r5, pc}
 8000428:	2d01      	cmp	r5, #1
 800042a:	bf04      	itt	eq
 800042c:	2300      	moveq	r3, #0
 800042e:	7023      	strbeq	r3, [r4, #0]
 8000430:	e7f8      	b.n	8000424 <APPE_SysUserEvtRx+0x60>
 8000432:	bf00      	nop
 8000434:	e0042000 	.word	0xe0042000

08000438 <MX_APPE_Config>:
 8000438:	b508      	push	{r3, lr}
 800043a:	4b0b      	ldr	r3, [pc, #44]	; (8000468 <MX_APPE_Config+0x30>)
 800043c:	f44f 4200 	mov.w	r2, #32768	; 0x8000
 8000440:	611a      	str	r2, [r3, #16]
 8000442:	2000      	movs	r0, #0
 8000444:	f004 f88a 	bl	800455c <OTP_Read>
 8000448:	b168      	cbz	r0, 8000466 <MX_APPE_Config+0x2e>
 800044a:	f04f 42b0 	mov.w	r2, #1476395008	; 0x58000000
 800044e:	4b07      	ldr	r3, [pc, #28]	; (800046c <MX_APPE_Config+0x34>)
 8000450:	7981      	ldrb	r1, [r0, #6]
 8000452:	f8c2 309c 	str.w	r3, [r2, #156]	; 0x9c
 8000456:	f8d2 309c 	ldr.w	r3, [r2, #156]	; 0x9c
 800045a:	f423 537c 	bic.w	r3, r3, #16128	; 0x3f00
 800045e:	ea43 2301 	orr.w	r3, r3, r1, lsl #8
 8000462:	f8c2 309c 	str.w	r3, [r2, #156]	; 0x9c
 8000466:	bd08      	pop	{r3, pc}
 8000468:	58004000 	.word	0x58004000
 800046c:	cafecafe 	.word	0xcafecafe

08000470 <Init_Exti>:
 8000470:	4a03      	ldr	r2, [pc, #12]	; (8000480 <Init_Exti+0x10>)
 8000472:	f8d2 3090 	ldr.w	r3, [r2, #144]	; 0x90
 8000476:	f043 0350 	orr.w	r3, r3, #80	; 0x50
 800047a:	f8c2 3090 	str.w	r3, [r2, #144]	; 0x90
 800047e:	4770      	bx	lr
 8000480:	58000800 	.word	0x58000800

08000484 <MX_APPE_Init>:
 8000484:	b510      	push	{r4, lr}
 8000486:	b088      	sub	sp, #32
 8000488:	f7ff fff2 	bl	8000470 <Init_Exti>
 800048c:	4b2c      	ldr	r3, [pc, #176]	; (8000540 <MX_APPE_Init+0xbc>)
 800048e:	4c2d      	ldr	r4, [pc, #180]	; (8000544 <MX_APPE_Init+0xc0>)
 8000490:	22ca      	movs	r2, #202	; 0xca
 8000492:	625a      	str	r2, [r3, #36]	; 0x24
 8000494:	2253      	movs	r2, #83	; 0x53
 8000496:	625a      	str	r2, [r3, #36]	; 0x24
 8000498:	689a      	ldr	r2, [r3, #8]
 800049a:	f022 0207 	bic.w	r2, r2, #7
 800049e:	609a      	str	r2, [r3, #8]
 80004a0:	22ff      	movs	r2, #255	; 0xff
 80004a2:	625a      	str	r2, [r3, #36]	; 0x24
 80004a4:	f04f 42b0 	mov.w	r2, #1476395008	; 0x58000000
 80004a8:	6893      	ldr	r3, [r2, #8]
 80004aa:	f443 4300 	orr.w	r3, r3, #32768	; 0x8000
 80004ae:	6093      	str	r3, [r2, #8]
 80004b0:	f004 fb60 	bl	8004b74 <UTIL_LPM_Init>
 80004b4:	4a24      	ldr	r2, [pc, #144]	; (8000548 <MX_APPE_Init+0xc4>)
 80004b6:	4925      	ldr	r1, [pc, #148]	; (800054c <MX_APPE_Init+0xc8>)
 80004b8:	f8d2 3080 	ldr.w	r3, [r2, #128]	; 0x80
 80004bc:	f023 0307 	bic.w	r3, r3, #7
 80004c0:	f043 0304 	orr.w	r3, r3, #4
 80004c4:	f8c2 3080 	str.w	r3, [r2, #128]	; 0x80
 80004c8:	2000      	movs	r0, #0
 80004ca:	f000 f983 	bl	80007d4 <HW_TS_Init>
 80004ce:	f7ff fe7b 	bl	80001c8 <APPD_Init>
 80004d2:	2101      	movs	r1, #1
 80004d4:	4608      	mov	r0, r1
 80004d6:	f004 fb57 	bl	8004b88 <UTIL_LPM_SetOffMode>
 80004da:	2101      	movs	r1, #1
 80004dc:	2000      	movs	r0, #0
 80004de:	f001 f9c1 	bl	8001864 <BSP_PB_Init>
 80004e2:	2101      	movs	r1, #1
 80004e4:	4608      	mov	r0, r1
 80004e6:	f001 f9bd 	bl	8001864 <BSP_PB_Init>
 80004ea:	2101      	movs	r1, #1
 80004ec:	2002      	movs	r0, #2
 80004ee:	f001 f9b9 	bl	8001864 <BSP_PB_Init>
 80004f2:	4b17      	ldr	r3, [pc, #92]	; (8000550 <MX_APPE_Init+0xcc>)
 80004f4:	4917      	ldr	r1, [pc, #92]	; (8000554 <MX_APPE_Init+0xd0>)
 80004f6:	2201      	movs	r2, #1
 80004f8:	2000      	movs	r0, #0
 80004fa:	f000 fb95 	bl	8000c28 <HW_UART_Receive_IT>
 80004fe:	f004 fa27 	bl	8004950 <TL_Init>
 8000502:	4a15      	ldr	r2, [pc, #84]	; (8000558 <MX_APPE_Init+0xd4>)
 8000504:	2100      	movs	r1, #0
 8000506:	2040      	movs	r0, #64	; 0x40
 8000508:	f004 fc98 	bl	8004e3c <UTIL_SEQ_RegTask>
 800050c:	4669      	mov	r1, sp
 800050e:	4b13      	ldr	r3, [pc, #76]	; (800055c <MX_APPE_Init+0xd8>)
 8000510:	4813      	ldr	r0, [pc, #76]	; (8000560 <MX_APPE_Init+0xdc>)
 8000512:	9400      	str	r4, [sp, #0]
 8000514:	9301      	str	r3, [sp, #4]
 8000516:	f004 f8b1 	bl	800467c <shci_init>
 800051a:	f504 7386 	add.w	r3, r4, #268	; 0x10c
 800051e:	9302      	str	r3, [sp, #8]
 8000520:	f504 7306 	add.w	r3, r4, #536	; 0x218
 8000524:	9303      	str	r3, [sp, #12]
 8000526:	a802      	add	r0, sp, #8
 8000528:	f240 533c 	movw	r3, #1340	; 0x53c
 800052c:	f504 7449 	add.w	r4, r4, #804	; 0x324
 8000530:	9305      	str	r3, [sp, #20]
 8000532:	9404      	str	r4, [sp, #16]
 8000534:	f004 facc 	bl	8004ad0 <TL_MM_Init>
 8000538:	f004 fa08 	bl	800494c <TL_Enable>
 800053c:	b008      	add	sp, #32
 800053e:	bd10      	pop	{r4, pc}
 8000540:	40002800 	.word	0x40002800
 8000544:	200301f8 	.word	0x200301f8
 8000548:	58000400 	.word	0x58000400
 800054c:	20000404 	.word	0x20000404
 8000550:	08000329 	.word	0x08000329
 8000554:	200001a8 	.word	0x200001a8
 8000558:	080046d1 	.word	0x080046d1
 800055c:	08000325 	.word	0x08000325
 8000560:	080003c5 	.word	0x080003c5

08000564 <HAL_Delay>:
 8000564:	b570      	push	{r4, r5, r6, lr}
 8000566:	4604      	mov	r4, r0
 8000568:	f001 fa40 	bl	80019ec <HAL_GetTick>
 800056c:	1c63      	adds	r3, r4, #1
 800056e:	4605      	mov	r5, r0
 8000570:	d002      	beq.n	8000578 <HAL_Delay+0x14>
 8000572:	f001 fa47 	bl	8001a04 <HAL_GetTickFreq>
 8000576:	4404      	add	r4, r0
 8000578:	4e06      	ldr	r6, [pc, #24]	; (8000594 <HAL_Delay+0x30>)
 800057a:	e004      	b.n	8000586 <HAL_Delay+0x22>
 800057c:	6933      	ldr	r3, [r6, #16]
 800057e:	f023 0304 	bic.w	r3, r3, #4
 8000582:	6133      	str	r3, [r6, #16]
 8000584:	bf30      	wfi
 8000586:	f001 fa31 	bl	80019ec <HAL_GetTick>
 800058a:	1b43      	subs	r3, r0, r5
 800058c:	42a3      	cmp	r3, r4
 800058e:	d3f5      	bcc.n	800057c <HAL_Delay+0x18>
 8000590:	bd70      	pop	{r4, r5, r6, pc}
 8000592:	bf00      	nop
 8000594:	e000ed00 	.word	0xe000ed00

08000598 <MX_APPE_Process>:
 8000598:	f04f 30ff 	mov.w	r0, #4294967295
 800059c:	f004 bb88 	b.w	8004cb0 <UTIL_SEQ_Run>

080005a0 <UTIL_SEQ_Idle>:
 80005a0:	f004 bb08 	b.w	8004bb4 <UTIL_LPM_EnterLowPower>

080005a4 <UTIL_SEQ_EvtIdle>:
 80005a4:	f04f 30ff 	mov.w	r0, #4294967295
 80005a8:	f004 bb82 	b.w	8004cb0 <UTIL_SEQ_Run>

080005ac <shci_notify_asynch_evt>:
 80005ac:	2100      	movs	r1, #0
 80005ae:	2040      	movs	r0, #64	; 0x40
 80005b0:	f004 bb20 	b.w	8004bf4 <UTIL_SEQ_SetTask>

080005b4 <shci_cmd_resp_release>:
 80005b4:	2002      	movs	r0, #2
 80005b6:	f004 bb4d 	b.w	8004c54 <UTIL_SEQ_SetEvt>

080005ba <shci_cmd_resp_wait>:
 80005ba:	2002      	movs	r0, #2
 80005bc:	f004 bc0c 	b.w	8004dd8 <UTIL_SEQ_WaitEvt>

080005c0 <HAL_GPIO_EXTI_Callback>:
 80005c0:	2802      	cmp	r0, #2
 80005c2:	d007      	beq.n	80005d4 <HAL_GPIO_EXTI_Callback+0x14>
 80005c4:	2810      	cmp	r0, #16
 80005c6:	d003      	beq.n	80005d0 <HAL_GPIO_EXTI_Callback+0x10>
 80005c8:	2801      	cmp	r0, #1
 80005ca:	d105      	bne.n	80005d8 <HAL_GPIO_EXTI_Callback+0x18>
 80005cc:	f000 bf78 	b.w	80014c0 <APP_BLE_Key_Button2_Action>
 80005d0:	f000 bf74 	b.w	80014bc <APP_BLE_Key_Button1_Action>
 80005d4:	f000 bf7a 	b.w	80014cc <APP_BLE_Key_Button3_Action>
 80005d8:	4770      	bx	lr
	...

080005dc <ReadRtcSsrValue>:
 80005dc:	4a05      	ldr	r2, [pc, #20]	; (80005f4 <ReadRtcSsrValue+0x18>)
 80005de:	6a90      	ldr	r0, [r2, #40]	; 0x28
 80005e0:	6a93      	ldr	r3, [r2, #40]	; 0x28
 80005e2:	b280      	uxth	r0, r0
 80005e4:	b29b      	uxth	r3, r3
 80005e6:	4298      	cmp	r0, r3
 80005e8:	d100      	bne.n	80005ec <ReadRtcSsrValue+0x10>
 80005ea:	4770      	bx	lr
 80005ec:	6a91      	ldr	r1, [r2, #40]	; 0x28
 80005ee:	4618      	mov	r0, r3
 80005f0:	b28b      	uxth	r3, r1
 80005f2:	e7f8      	b.n	80005e6 <ReadRtcSsrValue+0xa>
 80005f4:	40002800 	.word	0x40002800

080005f8 <UnlinkTimer>:
 80005f8:	b5f0      	push	{r4, r5, r6, r7, lr}
 80005fa:	4a1b      	ldr	r2, [pc, #108]	; (8000668 <UnlinkTimer+0x70>)
 80005fc:	7813      	ldrb	r3, [r2, #0]
 80005fe:	4283      	cmp	r3, r0
 8000600:	4b1a      	ldr	r3, [pc, #104]	; (800066c <UnlinkTimer+0x74>)
 8000602:	d117      	bne.n	8000634 <UnlinkTimer+0x3c>
 8000604:	7814      	ldrb	r4, [r2, #0]
 8000606:	4d1a      	ldr	r5, [pc, #104]	; (8000670 <UnlinkTimer+0x78>)
 8000608:	b2e4      	uxtb	r4, r4
 800060a:	702c      	strb	r4, [r5, #0]
 800060c:	2418      	movs	r4, #24
 800060e:	fb04 3400 	mla	r4, r4, r0, r3
 8000612:	7d64      	ldrb	r4, [r4, #21]
 8000614:	b2e4      	uxtb	r4, r4
 8000616:	7014      	strb	r4, [r2, #0]
 8000618:	2418      	movs	r4, #24
 800061a:	fb04 3300 	mla	r3, r4, r0, r3
 800061e:	2001      	movs	r0, #1
 8000620:	7318      	strb	r0, [r3, #12]
 8000622:	7813      	ldrb	r3, [r2, #0]
 8000624:	2b06      	cmp	r3, #6
 8000626:	d104      	bne.n	8000632 <UnlinkTimer+0x3a>
 8000628:	b919      	cbnz	r1, 8000632 <UnlinkTimer+0x3a>
 800062a:	4b12      	ldr	r3, [pc, #72]	; (8000674 <UnlinkTimer+0x7c>)
 800062c:	f04f 32ff 	mov.w	r2, #4294967295
 8000630:	601a      	str	r2, [r3, #0]
 8000632:	bdf0      	pop	{r4, r5, r6, r7, pc}
 8000634:	2718      	movs	r7, #24
 8000636:	fb07 3400 	mla	r4, r7, r0, r3
 800063a:	7d26      	ldrb	r6, [r4, #20]
 800063c:	f894 e015 	ldrb.w	lr, [r4, #21]
 8000640:	f894 c015 	ldrb.w	ip, [r4, #21]
 8000644:	fb07 3606 	mla	r6, r7, r6, r3
 8000648:	fa5f fc8c 	uxtb.w	ip, ip
 800064c:	f1be 0f06 	cmp.w	lr, #6
 8000650:	f886 c015 	strb.w	ip, [r6, #21]
 8000654:	bf18      	it	ne
 8000656:	7d26      	ldrbne	r6, [r4, #20]
 8000658:	fa5f f58e 	uxtb.w	r5, lr
 800065c:	bf1e      	ittt	ne
 800065e:	fb07 3405 	mlane	r4, r7, r5, r3
 8000662:	b2f6      	uxtbne	r6, r6
 8000664:	7526      	strbne	r6, [r4, #20]
 8000666:	e7d7      	b.n	8000618 <UnlinkTimer+0x20>
 8000668:	200001bb 	.word	0x200001bb
 800066c:	200001c8 	.word	0x200001c8
 8000670:	200001be 	.word	0x200001be
 8000674:	200001c0 	.word	0x200001c0

08000678 <ReturnTimeElapsed>:
 8000678:	b510      	push	{r4, lr}
 800067a:	4c0d      	ldr	r4, [pc, #52]	; (80006b0 <ReturnTimeElapsed+0x38>)
 800067c:	6823      	ldr	r3, [r4, #0]
 800067e:	3301      	adds	r3, #1
 8000680:	d013      	beq.n	80006aa <ReturnTimeElapsed+0x32>
 8000682:	f7ff ffab 	bl	80005dc <ReadRtcSsrValue>
 8000686:	6823      	ldr	r3, [r4, #0]
 8000688:	4283      	cmp	r3, r0
 800068a:	bf3d      	ittte	cc
 800068c:	4b09      	ldrcc	r3, [pc, #36]	; (80006b4 <ReturnTimeElapsed+0x3c>)
 800068e:	6822      	ldrcc	r2, [r4, #0]
 8000690:	881b      	ldrhcc	r3, [r3, #0]
 8000692:	6823      	ldrcs	r3, [r4, #0]
 8000694:	bf38      	it	cc
 8000696:	189b      	addcc	r3, r3, r2
 8000698:	1a18      	subs	r0, r3, r0
 800069a:	4b07      	ldr	r3, [pc, #28]	; (80006b8 <ReturnTimeElapsed+0x40>)
 800069c:	781b      	ldrb	r3, [r3, #0]
 800069e:	4358      	muls	r0, r3
 80006a0:	4b06      	ldr	r3, [pc, #24]	; (80006bc <ReturnTimeElapsed+0x44>)
 80006a2:	781b      	ldrb	r3, [r3, #0]
 80006a4:	40d8      	lsrs	r0, r3
 80006a6:	b280      	uxth	r0, r0
 80006a8:	bd10      	pop	{r4, pc}
 80006aa:	2000      	movs	r0, #0
 80006ac:	e7fb      	b.n	80006a6 <ReturnTimeElapsed+0x2e>
 80006ae:	bf00      	nop
 80006b0:	200001c0 	.word	0x200001c0
 80006b4:	200001c4 	.word	0x200001c4
 80006b8:	200001ba 	.word	0x200001ba
 80006bc:	200001c6 	.word	0x200001c6

080006c0 <RescheduleTimerList>:
 80006c0:	b5f8      	push	{r3, r4, r5, r6, r7, lr}
 80006c2:	4b3b      	ldr	r3, [pc, #236]	; (80007b0 <RescheduleTimerList+0xf0>)
 80006c4:	4e3b      	ldr	r6, [pc, #236]	; (80007b4 <RescheduleTimerList+0xf4>)
 80006c6:	689a      	ldr	r2, [r3, #8]
 80006c8:	6833      	ldr	r3, [r6, #0]
 80006ca:	f412 6f80 	tst.w	r2, #1024	; 0x400
 80006ce:	d003      	beq.n	80006d8 <RescheduleTimerList+0x18>
 80006d0:	68da      	ldr	r2, [r3, #12]
 80006d2:	f012 0f04 	tst.w	r2, #4
 80006d6:	e7fa      	b.n	80006ce <RescheduleTimerList+0xe>
 80006d8:	689a      	ldr	r2, [r3, #8]
 80006da:	4f37      	ldr	r7, [pc, #220]	; (80007b8 <RescheduleTimerList+0xf8>)
 80006dc:	f422 6280 	bic.w	r2, r2, #1024	; 0x400
 80006e0:	609a      	str	r2, [r3, #8]
 80006e2:	4b36      	ldr	r3, [pc, #216]	; (80007bc <RescheduleTimerList+0xfc>)
 80006e4:	781b      	ldrb	r3, [r3, #0]
 80006e6:	2218      	movs	r2, #24
 80006e8:	b2dd      	uxtb	r5, r3
 80006ea:	fb02 7303 	mla	r3, r2, r3, r7
 80006ee:	689c      	ldr	r4, [r3, #8]
 80006f0:	f7ff ffc2 	bl	8000678 <ReturnTimeElapsed>
 80006f4:	42a0      	cmp	r0, r4
 80006f6:	4b32      	ldr	r3, [pc, #200]	; (80007c0 <RescheduleTimerList+0x100>)
 80006f8:	d906      	bls.n	8000708 <RescheduleTimerList+0x48>
 80006fa:	2201      	movs	r2, #1
 80006fc:	701a      	strb	r2, [r3, #0]
 80006fe:	2400      	movs	r4, #0
 8000700:	2118      	movs	r1, #24
 8000702:	f04f 0c00 	mov.w	ip, #0
 8000706:	e01c      	b.n	8000742 <RescheduleTimerList+0x82>
 8000708:	492e      	ldr	r1, [pc, #184]	; (80007c4 <RescheduleTimerList+0x104>)
 800070a:	880a      	ldrh	r2, [r1, #0]
 800070c:	fa10 f282 	uxtah	r2, r0, r2
 8000710:	42a2      	cmp	r2, r4
 8000712:	bf39      	ittee	cc
 8000714:	880c      	ldrhcc	r4, [r1, #0]
 8000716:	2200      	movcc	r2, #0
 8000718:	1a24      	subcs	r4, r4, r0
 800071a:	2201      	movcs	r2, #1
 800071c:	bf34      	ite	cc
 800071e:	b2a4      	uxthcc	r4, r4
 8000720:	b2a4      	uxthcs	r4, r4
 8000722:	701a      	strb	r2, [r3, #0]
 8000724:	e7ec      	b.n	8000700 <RescheduleTimerList+0x40>
 8000726:	fb01 7305 	mla	r3, r1, r5, r7
 800072a:	fb01 7505 	mla	r5, r1, r5, r7
 800072e:	689a      	ldr	r2, [r3, #8]
 8000730:	4290      	cmp	r0, r2
 8000732:	bf97      	itett	ls
 8000734:	689a      	ldrls	r2, [r3, #8]
 8000736:	f8c3 c008 	strhi.w	ip, [r3, #8]
 800073a:	1a12      	subls	r2, r2, r0
 800073c:	609a      	strls	r2, [r3, #8]
 800073e:	7d6d      	ldrb	r5, [r5, #21]
 8000740:	b2ed      	uxtb	r5, r5
 8000742:	2d06      	cmp	r5, #6
 8000744:	d1ef      	bne.n	8000726 <RescheduleTimerList+0x66>
 8000746:	b944      	cbnz	r4, 800075a <RescheduleTimerList+0x9a>
 8000748:	f7ff ff48 	bl	80005dc <ReadRtcSsrValue>
 800074c:	4b1e      	ldr	r3, [pc, #120]	; (80007c8 <RescheduleTimerList+0x108>)
 800074e:	6018      	str	r0, [r3, #0]
 8000750:	e8bd 40f8 	ldmia.w	sp!, {r3, r4, r5, r6, r7, lr}
 8000754:	2003      	movs	r0, #3
 8000756:	f001 b9fb 	b.w	8001b50 <HAL_NVIC_SetPendingIRQ>
 800075a:	2c01      	cmp	r4, #1
 800075c:	d103      	bne.n	8000766 <RescheduleTimerList+0xa6>
 800075e:	4b1b      	ldr	r3, [pc, #108]	; (80007cc <RescheduleTimerList+0x10c>)
 8000760:	781b      	ldrb	r3, [r3, #0]
 8000762:	2b01      	cmp	r3, #1
 8000764:	d001      	beq.n	800076a <RescheduleTimerList+0xaa>
 8000766:	3c01      	subs	r4, #1
 8000768:	b2a4      	uxth	r4, r4
 800076a:	6832      	ldr	r2, [r6, #0]
 800076c:	68d3      	ldr	r3, [r2, #12]
 800076e:	075b      	lsls	r3, r3, #29
 8000770:	d5fc      	bpl.n	800076c <RescheduleTimerList+0xac>
 8000772:	68d3      	ldr	r3, [r2, #12]
 8000774:	b2db      	uxtb	r3, r3
 8000776:	f463 6390 	orn	r3, r3, #1152	; 0x480
 800077a:	60d3      	str	r3, [r2, #12]
 800077c:	4b14      	ldr	r3, [pc, #80]	; (80007d0 <RescheduleTimerList+0x110>)
 800077e:	f44f 2200 	mov.w	r2, #524288	; 0x80000
 8000782:	60da      	str	r2, [r3, #12]
 8000784:	2003      	movs	r0, #3
 8000786:	f001 f9f3 	bl	8001b70 <HAL_NVIC_ClearPendingIRQ>
 800078a:	4a09      	ldr	r2, [pc, #36]	; (80007b0 <RescheduleTimerList+0xf0>)
 800078c:	6953      	ldr	r3, [r2, #20]
 800078e:	0c1b      	lsrs	r3, r3, #16
 8000790:	041b      	lsls	r3, r3, #16
 8000792:	4323      	orrs	r3, r4
 8000794:	6153      	str	r3, [r2, #20]
 8000796:	f7ff ff21 	bl	80005dc <ReadRtcSsrValue>
 800079a:	4b0b      	ldr	r3, [pc, #44]	; (80007c8 <RescheduleTimerList+0x108>)
 800079c:	6832      	ldr	r2, [r6, #0]
 800079e:	6018      	str	r0, [r3, #0]
 80007a0:	6893      	ldr	r3, [r2, #8]
 80007a2:	f443 6380 	orr.w	r3, r3, #1024	; 0x400
 80007a6:	6093      	str	r3, [r2, #8]
 80007a8:	f3af 8000 	nop.w
 80007ac:	bdf8      	pop	{r3, r4, r5, r6, r7, pc}
 80007ae:	bf00      	nop
 80007b0:	40002800 	.word	0x40002800
 80007b4:	20000404 	.word	0x20000404
 80007b8:	200001c8 	.word	0x200001c8
 80007bc:	200001bb 	.word	0x200001bb
 80007c0:	200001c7 	.word	0x200001c7
 80007c4:	200001bc 	.word	0x200001bc
 80007c8:	200001c0 	.word	0x200001c0
 80007cc:	200001c6 	.word	0x200001c6
 80007d0:	58000800 	.word	0x58000800

080007d4 <HW_TS_Init>:
 80007d4:	b570      	push	{r4, r5, r6, lr}
 80007d6:	4c40      	ldr	r4, [pc, #256]	; (80008d8 <HW_TS_Init+0x104>)
 80007d8:	4a40      	ldr	r2, [pc, #256]	; (80008dc <HW_TS_Init+0x108>)
 80007da:	6825      	ldr	r5, [r4, #0]
 80007dc:	23ca      	movs	r3, #202	; 0xca
 80007de:	626b      	str	r3, [r5, #36]	; 0x24
 80007e0:	2353      	movs	r3, #83	; 0x53
 80007e2:	626b      	str	r3, [r5, #36]	; 0x24
 80007e4:	6893      	ldr	r3, [r2, #8]
 80007e6:	f043 0320 	orr.w	r3, r3, #32
 80007ea:	6093      	str	r3, [r2, #8]
 80007ec:	6893      	ldr	r3, [r2, #8]
 80007ee:	f003 0307 	and.w	r3, r3, #7
 80007f2:	f1c3 0304 	rsb	r3, r3, #4
 80007f6:	b2de      	uxtb	r6, r3
 80007f8:	4b39      	ldr	r3, [pc, #228]	; (80008e0 <HW_TS_Init+0x10c>)
 80007fa:	701e      	strb	r6, [r3, #0]
 80007fc:	6913      	ldr	r3, [r2, #16]
 80007fe:	f44f 01fe 	mov.w	r1, #8323072	; 0x7f0000
 8000802:	f403 03fe 	and.w	r3, r3, #8323072	; 0x7f0000
 8000806:	fa91 f1a1 	rbit	r1, r1
 800080a:	fab1 f181 	clz	r1, r1
 800080e:	40cb      	lsrs	r3, r1
 8000810:	3301      	adds	r3, #1
 8000812:	b2d9      	uxtb	r1, r3
 8000814:	4b33      	ldr	r3, [pc, #204]	; (80008e4 <HW_TS_Init+0x110>)
 8000816:	7019      	strb	r1, [r3, #0]
 8000818:	6912      	ldr	r2, [r2, #16]
 800081a:	4b33      	ldr	r3, [pc, #204]	; (80008e8 <HW_TS_Init+0x114>)
 800081c:	f3c2 020e 	ubfx	r2, r2, #0, #15
 8000820:	3201      	adds	r2, #1
 8000822:	801a      	strh	r2, [r3, #0]
 8000824:	1e53      	subs	r3, r2, #1
 8000826:	434b      	muls	r3, r1
 8000828:	f5a3 73a0 	sub.w	r3, r3, #320	; 0x140
 800082c:	40f3      	lsrs	r3, r6
 800082e:	f64f 72fe 	movw	r2, #65534	; 0xfffe
 8000832:	4293      	cmp	r3, r2
 8000834:	4a2d      	ldr	r2, [pc, #180]	; (80008ec <HW_TS_Init+0x118>)
 8000836:	bf8c      	ite	hi
 8000838:	f64f 73ff 	movwhi	r3, #65535	; 0xffff
 800083c:	b29b      	uxthls	r3, r3
 800083e:	8013      	strh	r3, [r2, #0]
 8000840:	4a2b      	ldr	r2, [pc, #172]	; (80008f0 <HW_TS_Init+0x11c>)
 8000842:	6813      	ldr	r3, [r2, #0]
 8000844:	f443 2300 	orr.w	r3, r3, #524288	; 0x80000
 8000848:	6013      	str	r3, [r2, #0]
 800084a:	f8d2 3080 	ldr.w	r3, [r2, #128]	; 0x80
 800084e:	f443 2300 	orr.w	r3, r3, #524288	; 0x80000
 8000852:	f8c2 3080 	str.w	r3, [r2, #128]	; 0x80
 8000856:	2800      	cmp	r0, #0
 8000858:	d136      	bne.n	80008c8 <HW_TS_Init+0xf4>
 800085a:	4b26      	ldr	r3, [pc, #152]	; (80008f4 <HW_TS_Init+0x120>)
 800085c:	2101      	movs	r1, #1
 800085e:	7019      	strb	r1, [r3, #0]
 8000860:	4b25      	ldr	r3, [pc, #148]	; (80008f8 <HW_TS_Init+0x124>)
 8000862:	f04f 31ff 	mov.w	r1, #4294967295
 8000866:	6019      	str	r1, [r3, #0]
 8000868:	4b24      	ldr	r3, [pc, #144]	; (80008fc <HW_TS_Init+0x128>)
 800086a:	7318      	strb	r0, [r3, #12]
 800086c:	f883 0024 	strb.w	r0, [r3, #36]	; 0x24
 8000870:	f883 003c 	strb.w	r0, [r3, #60]	; 0x3c
 8000874:	f883 0054 	strb.w	r0, [r3, #84]	; 0x54
 8000878:	f883 006c 	strb.w	r0, [r3, #108]	; 0x6c
 800087c:	f883 0084 	strb.w	r0, [r3, #132]	; 0x84
 8000880:	4b1f      	ldr	r3, [pc, #124]	; (8000900 <HW_TS_Init+0x12c>)
 8000882:	2106      	movs	r1, #6
 8000884:	7019      	strb	r1, [r3, #0]
 8000886:	68ab      	ldr	r3, [r5, #8]
 8000888:	f423 6380 	bic.w	r3, r3, #1024	; 0x400
 800088c:	60ab      	str	r3, [r5, #8]
 800088e:	68eb      	ldr	r3, [r5, #12]
 8000890:	b2db      	uxtb	r3, r3
 8000892:	f463 6390 	orn	r3, r3, #1152	; 0x480
 8000896:	60eb      	str	r3, [r5, #12]
 8000898:	f44f 2300 	mov.w	r3, #524288	; 0x80000
 800089c:	60d3      	str	r3, [r2, #12]
 800089e:	2003      	movs	r0, #3
 80008a0:	f001 f966 	bl	8001b70 <HAL_NVIC_ClearPendingIRQ>
 80008a4:	6822      	ldr	r2, [r4, #0]
 80008a6:	6893      	ldr	r3, [r2, #8]
 80008a8:	f443 4380 	orr.w	r3, r3, #16384	; 0x4000
 80008ac:	6093      	str	r3, [r2, #8]
 80008ae:	6823      	ldr	r3, [r4, #0]
 80008b0:	22ff      	movs	r2, #255	; 0xff
 80008b2:	2103      	movs	r1, #3
 80008b4:	625a      	str	r2, [r3, #36]	; 0x24
 80008b6:	4608      	mov	r0, r1
 80008b8:	2200      	movs	r2, #0
 80008ba:	f001 f8e1 	bl	8001a80 <HAL_NVIC_SetPriority>
 80008be:	e8bd 4070 	ldmia.w	sp!, {r4, r5, r6, lr}
 80008c2:	2003      	movs	r0, #3
 80008c4:	f001 b90e 	b.w	8001ae4 <HAL_NVIC_EnableIRQ>
 80008c8:	68eb      	ldr	r3, [r5, #12]
 80008ca:	055b      	lsls	r3, r3, #21
 80008cc:	d5ef      	bpl.n	80008ae <HW_TS_Init+0xda>
 80008ce:	2003      	movs	r0, #3
 80008d0:	f001 f93e 	bl	8001b50 <HAL_NVIC_SetPendingIRQ>
 80008d4:	e7eb      	b.n	80008ae <HW_TS_Init+0xda>
 80008d6:	bf00      	nop
 80008d8:	20000404 	.word	0x20000404
 80008dc:	40002800 	.word	0x40002800
 80008e0:	200001c6 	.word	0x200001c6
 80008e4:	200001ba 	.word	0x200001ba
 80008e8:	200001c4 	.word	0x200001c4
 80008ec:	200001bc 	.word	0x200001bc
 80008f0:	58000800 	.word	0x58000800
 80008f4:	200001c7 	.word	0x200001c7
 80008f8:	200001c0 	.word	0x200001c0
 80008fc:	200001c8 	.word	0x200001c8
 8000900:	200001bb 	.word	0x200001bb

08000904 <HW_TS_Create>:
 8000904:	e92d 47f0 	stmdb	sp!, {r4, r5, r6, r7, r8, r9, sl, lr}
 8000908:	f3ef 8710 	mrs	r7, PRIMASK
 800090c:	b672      	cpsid	i
 800090e:	f8df 9044 	ldr.w	r9, [pc, #68]	; 8000954 <HW_TS_Create+0x50>
 8000912:	2500      	movs	r5, #0
 8000914:	f04f 0a18 	mov.w	sl, #24
 8000918:	fb0a 9405 	mla	r4, sl, r5, r9
 800091c:	fa5f fe85 	uxtb.w	lr, r5
 8000920:	f894 c00c 	ldrb.w	ip, [r4, #12]
 8000924:	f00c 06ff 	and.w	r6, ip, #255	; 0xff
 8000928:	f1bc 0f00 	cmp.w	ip, #0
 800092c:	d10b      	bne.n	8000946 <HW_TS_Create+0x42>
 800092e:	2501      	movs	r5, #1
 8000930:	7325      	strb	r5, [r4, #12]
 8000932:	f387 8810 	msr	PRIMASK, r7
 8000936:	6120      	str	r0, [r4, #16]
 8000938:	7362      	strb	r2, [r4, #13]
 800093a:	6023      	str	r3, [r4, #0]
 800093c:	f881 e000 	strb.w	lr, [r1]
 8000940:	4630      	mov	r0, r6
 8000942:	e8bd 87f0 	ldmia.w	sp!, {r4, r5, r6, r7, r8, r9, sl, pc}
 8000946:	3501      	adds	r5, #1
 8000948:	2d06      	cmp	r5, #6
 800094a:	d1e5      	bne.n	8000918 <HW_TS_Create+0x14>
 800094c:	f387 8810 	msr	PRIMASK, r7
 8000950:	2601      	movs	r6, #1
 8000952:	e7f5      	b.n	8000940 <HW_TS_Create+0x3c>
 8000954:	200001c8 	.word	0x200001c8

08000958 <HW_TS_Stop>:
 8000958:	b570      	push	{r4, r5, r6, lr}
 800095a:	4604      	mov	r4, r0
 800095c:	f3ef 8610 	mrs	r6, PRIMASK
 8000960:	b672      	cpsid	i
 8000962:	4d23      	ldr	r5, [pc, #140]	; (80009f0 <HW_TS_Stop+0x98>)
 8000964:	2003      	movs	r0, #3
 8000966:	f001 f8cb 	bl	8001b00 <HAL_NVIC_DisableIRQ>
 800096a:	682b      	ldr	r3, [r5, #0]
 800096c:	22ca      	movs	r2, #202	; 0xca
 800096e:	625a      	str	r2, [r3, #36]	; 0x24
 8000970:	2253      	movs	r2, #83	; 0x53
 8000972:	625a      	str	r2, [r3, #36]	; 0x24
 8000974:	4b1f      	ldr	r3, [pc, #124]	; (80009f4 <HW_TS_Stop+0x9c>)
 8000976:	2218      	movs	r2, #24
 8000978:	fb02 3304 	mla	r3, r2, r4, r3
 800097c:	7b1b      	ldrb	r3, [r3, #12]
 800097e:	2b02      	cmp	r3, #2
 8000980:	d125      	bne.n	80009ce <HW_TS_Stop+0x76>
 8000982:	2100      	movs	r1, #0
 8000984:	4620      	mov	r0, r4
 8000986:	f7ff fe37 	bl	80005f8 <UnlinkTimer>
 800098a:	4b1b      	ldr	r3, [pc, #108]	; (80009f8 <HW_TS_Stop+0xa0>)
 800098c:	781b      	ldrb	r3, [r3, #0]
 800098e:	2b06      	cmp	r3, #6
 8000990:	b2da      	uxtb	r2, r3
 8000992:	d125      	bne.n	80009e0 <HW_TS_Stop+0x88>
 8000994:	4b19      	ldr	r3, [pc, #100]	; (80009fc <HW_TS_Stop+0xa4>)
 8000996:	689a      	ldr	r2, [r3, #8]
 8000998:	682b      	ldr	r3, [r5, #0]
 800099a:	f412 6f80 	tst.w	r2, #1024	; 0x400
 800099e:	d003      	beq.n	80009a8 <HW_TS_Stop+0x50>
 80009a0:	68da      	ldr	r2, [r3, #12]
 80009a2:	f012 0f04 	tst.w	r2, #4
 80009a6:	e7fa      	b.n	800099e <HW_TS_Stop+0x46>
 80009a8:	689a      	ldr	r2, [r3, #8]
 80009aa:	f422 6280 	bic.w	r2, r2, #1024	; 0x400
 80009ae:	609a      	str	r2, [r3, #8]
 80009b0:	68da      	ldr	r2, [r3, #12]
 80009b2:	0752      	lsls	r2, r2, #29
 80009b4:	d5fc      	bpl.n	80009b0 <HW_TS_Stop+0x58>
 80009b6:	68da      	ldr	r2, [r3, #12]
 80009b8:	b2d2      	uxtb	r2, r2
 80009ba:	f462 6290 	orn	r2, r2, #1152	; 0x480
 80009be:	60da      	str	r2, [r3, #12]
 80009c0:	4b0f      	ldr	r3, [pc, #60]	; (8000a00 <HW_TS_Stop+0xa8>)
 80009c2:	f44f 2200 	mov.w	r2, #524288	; 0x80000
 80009c6:	60da      	str	r2, [r3, #12]
 80009c8:	2003      	movs	r0, #3
 80009ca:	f001 f8d1 	bl	8001b70 <HAL_NVIC_ClearPendingIRQ>
 80009ce:	682b      	ldr	r3, [r5, #0]
 80009d0:	22ff      	movs	r2, #255	; 0xff
 80009d2:	625a      	str	r2, [r3, #36]	; 0x24
 80009d4:	2003      	movs	r0, #3
 80009d6:	f001 f885 	bl	8001ae4 <HAL_NVIC_EnableIRQ>
 80009da:	f386 8810 	msr	PRIMASK, r6
 80009de:	bd70      	pop	{r4, r5, r6, pc}
 80009e0:	4b08      	ldr	r3, [pc, #32]	; (8000a04 <HW_TS_Stop+0xac>)
 80009e2:	781b      	ldrb	r3, [r3, #0]
 80009e4:	4293      	cmp	r3, r2
 80009e6:	d0f2      	beq.n	80009ce <HW_TS_Stop+0x76>
 80009e8:	f7ff fe6a 	bl	80006c0 <RescheduleTimerList>
 80009ec:	e7ef      	b.n	80009ce <HW_TS_Stop+0x76>
 80009ee:	bf00      	nop
 80009f0:	20000404 	.word	0x20000404
 80009f4:	200001c8 	.word	0x200001c8
 80009f8:	200001bb 	.word	0x200001bb
 80009fc:	40002800 	.word	0x40002800
 8000a00:	58000800 	.word	0x58000800
 8000a04:	200001be 	.word	0x200001be

08000a08 <HW_TS_Start>:
 8000a08:	e92d 47f0 	stmdb	sp!, {r4, r5, r6, r7, r8, r9, sl, lr}
 8000a0c:	4c4f      	ldr	r4, [pc, #316]	; (8000b4c <HW_TS_Start+0x144>)
 8000a0e:	2318      	movs	r3, #24
 8000a10:	fb03 4300 	mla	r3, r3, r0, r4
 8000a14:	4605      	mov	r5, r0
 8000a16:	7b1b      	ldrb	r3, [r3, #12]
 8000a18:	2b02      	cmp	r3, #2
 8000a1a:	460f      	mov	r7, r1
 8000a1c:	d101      	bne.n	8000a22 <HW_TS_Start+0x1a>
 8000a1e:	f7ff ff9b 	bl	8000958 <HW_TS_Stop>
 8000a22:	f3ef 8610 	mrs	r6, PRIMASK
 8000a26:	b672      	cpsid	i
 8000a28:	f8df 9130 	ldr.w	r9, [pc, #304]	; 8000b5c <HW_TS_Start+0x154>
 8000a2c:	2003      	movs	r0, #3
 8000a2e:	f001 f867 	bl	8001b00 <HAL_NVIC_DisableIRQ>
 8000a32:	f8d9 3000 	ldr.w	r3, [r9]
 8000a36:	22ca      	movs	r2, #202	; 0xca
 8000a38:	f04f 0a18 	mov.w	sl, #24
 8000a3c:	625a      	str	r2, [r3, #36]	; 0x24
 8000a3e:	fb0a 4805 	mla	r8, sl, r5, r4
 8000a42:	2253      	movs	r2, #83	; 0x53
 8000a44:	625a      	str	r2, [r3, #36]	; 0x24
 8000a46:	2302      	movs	r3, #2
 8000a48:	f888 300c 	strb.w	r3, [r8, #12]
 8000a4c:	f8c8 7008 	str.w	r7, [r8, #8]
 8000a50:	f8c8 7004 	str.w	r7, [r8, #4]
 8000a54:	4f3e      	ldr	r7, [pc, #248]	; (8000b50 <HW_TS_Start+0x148>)
 8000a56:	783b      	ldrb	r3, [r7, #0]
 8000a58:	2b06      	cmp	r3, #6
 8000a5a:	b2da      	uxtb	r2, r3
 8000a5c:	d11d      	bne.n	8000a9a <HW_TS_Start+0x92>
 8000a5e:	783b      	ldrb	r3, [r7, #0]
 8000a60:	493c      	ldr	r1, [pc, #240]	; (8000b54 <HW_TS_Start+0x14c>)
 8000a62:	b2db      	uxtb	r3, r3
 8000a64:	700b      	strb	r3, [r1, #0]
 8000a66:	4b3c      	ldr	r3, [pc, #240]	; (8000b58 <HW_TS_Start+0x150>)
 8000a68:	703d      	strb	r5, [r7, #0]
 8000a6a:	f888 2015 	strb.w	r2, [r8, #21]
 8000a6e:	f04f 32ff 	mov.w	r2, #4294967295
 8000a72:	601a      	str	r2, [r3, #0]
 8000a74:	2000      	movs	r0, #0
 8000a76:	4a37      	ldr	r2, [pc, #220]	; (8000b54 <HW_TS_Start+0x14c>)
 8000a78:	783b      	ldrb	r3, [r7, #0]
 8000a7a:	7812      	ldrb	r2, [r2, #0]
 8000a7c:	429a      	cmp	r2, r3
 8000a7e:	d05e      	beq.n	8000b3e <HW_TS_Start+0x136>
 8000a80:	f7ff fe1e 	bl	80006c0 <RescheduleTimerList>
 8000a84:	f8d9 3000 	ldr.w	r3, [r9]
 8000a88:	22ff      	movs	r2, #255	; 0xff
 8000a8a:	625a      	str	r2, [r3, #36]	; 0x24
 8000a8c:	2003      	movs	r0, #3
 8000a8e:	f001 f829 	bl	8001ae4 <HAL_NVIC_EnableIRQ>
 8000a92:	f386 8810 	msr	PRIMASK, r6
 8000a96:	e8bd 87f0 	ldmia.w	sp!, {r4, r5, r6, r7, r8, r9, sl, pc}
 8000a9a:	f7ff fded 	bl	8000678 <ReturnTimeElapsed>
 8000a9e:	f8d8 3008 	ldr.w	r3, [r8, #8]
 8000aa2:	4403      	add	r3, r0
 8000aa4:	f8c8 3008 	str.w	r3, [r8, #8]
 8000aa8:	f8d8 1008 	ldr.w	r1, [r8, #8]
 8000aac:	783b      	ldrb	r3, [r7, #0]
 8000aae:	fb0a 4303 	mla	r3, sl, r3, r4
 8000ab2:	689b      	ldr	r3, [r3, #8]
 8000ab4:	4299      	cmp	r1, r3
 8000ab6:	d325      	bcc.n	8000b04 <HW_TS_Start+0xfc>
 8000ab8:	783a      	ldrb	r2, [r7, #0]
 8000aba:	b2d3      	uxtb	r3, r2
 8000abc:	fb0a 4202 	mla	r2, sl, r2, r4
 8000ac0:	7d52      	ldrb	r2, [r2, #21]
 8000ac2:	b2d2      	uxtb	r2, r2
 8000ac4:	2a06      	cmp	r2, #6
 8000ac6:	d004      	beq.n	8000ad2 <HW_TS_Start+0xca>
 8000ac8:	fb0a 4202 	mla	r2, sl, r2, r4
 8000acc:	6892      	ldr	r2, [r2, #8]
 8000ace:	4291      	cmp	r1, r2
 8000ad0:	d214      	bcs.n	8000afc <HW_TS_Start+0xf4>
 8000ad2:	2218      	movs	r2, #24
 8000ad4:	fb02 4103 	mla	r1, r2, r3, r4
 8000ad8:	7d49      	ldrb	r1, [r1, #21]
 8000ada:	fa5f fc81 	uxtb.w	ip, r1
 8000ade:	2906      	cmp	r1, #6
 8000ae0:	bf1c      	itt	ne
 8000ae2:	fb02 420c 	mlane	r2, r2, ip, r4
 8000ae6:	7515      	strbne	r5, [r2, #20]
 8000ae8:	2218      	movs	r2, #24
 8000aea:	fb02 4105 	mla	r1, r2, r5, r4
 8000aee:	f881 c015 	strb.w	ip, [r1, #21]
 8000af2:	750b      	strb	r3, [r1, #20]
 8000af4:	fb02 4303 	mla	r3, r2, r3, r4
 8000af8:	755d      	strb	r5, [r3, #21]
 8000afa:	e7bc      	b.n	8000a76 <HW_TS_Start+0x6e>
 8000afc:	fb0a 4303 	mla	r3, sl, r3, r4
 8000b00:	7d5a      	ldrb	r2, [r3, #21]
 8000b02:	e7da      	b.n	8000aba <HW_TS_Start+0xb2>
 8000b04:	783b      	ldrb	r3, [r7, #0]
 8000b06:	783a      	ldrb	r2, [r7, #0]
 8000b08:	4293      	cmp	r3, r2
 8000b0a:	b2d9      	uxtb	r1, r3
 8000b0c:	fb0a f303 	mul.w	r3, sl, r3
 8000b10:	d011      	beq.n	8000b36 <HW_TS_Start+0x12e>
 8000b12:	4423      	add	r3, r4
 8000b14:	7d1a      	ldrb	r2, [r3, #20]
 8000b16:	fa5f fc82 	uxtb.w	ip, r2
 8000b1a:	fb0a 4202 	mla	r2, sl, r2, r4
 8000b1e:	7555      	strb	r5, [r2, #21]
 8000b20:	f888 1015 	strb.w	r1, [r8, #21]
 8000b24:	f888 c014 	strb.w	ip, [r8, #20]
 8000b28:	751d      	strb	r5, [r3, #20]
 8000b2a:	783b      	ldrb	r3, [r7, #0]
 8000b2c:	4a09      	ldr	r2, [pc, #36]	; (8000b54 <HW_TS_Start+0x14c>)
 8000b2e:	b2db      	uxtb	r3, r3
 8000b30:	7013      	strb	r3, [r2, #0]
 8000b32:	703d      	strb	r5, [r7, #0]
 8000b34:	e79f      	b.n	8000a76 <HW_TS_Start+0x6e>
 8000b36:	f888 1015 	strb.w	r1, [r8, #21]
 8000b3a:	4423      	add	r3, r4
 8000b3c:	e7f4      	b.n	8000b28 <HW_TS_Start+0x120>
 8000b3e:	2318      	movs	r3, #24
 8000b40:	fb03 4405 	mla	r4, r3, r5, r4
 8000b44:	68a3      	ldr	r3, [r4, #8]
 8000b46:	1a18      	subs	r0, r3, r0
 8000b48:	60a0      	str	r0, [r4, #8]
 8000b4a:	e79b      	b.n	8000a84 <HW_TS_Start+0x7c>
 8000b4c:	200001c8 	.word	0x200001c8
 8000b50:	200001bb 	.word	0x200001bb
 8000b54:	200001be 	.word	0x200001be
 8000b58:	200001c0 	.word	0x200001c0
 8000b5c:	20000404 	.word	0x20000404

08000b60 <HW_TS_RTC_Int_AppNot>:
 8000b60:	4710      	bx	r2
	...

08000b64 <HW_TS_RTC_Wakeup_Handler>:
 8000b64:	e92d 4ff8 	stmdb	sp!, {r3, r4, r5, r6, r7, r8, r9, sl, fp, lr}
 8000b68:	f3ef 8510 	mrs	r5, PRIMASK
 8000b6c:	b672      	cpsid	i
 8000b6e:	4c29      	ldr	r4, [pc, #164]	; (8000c14 <HW_TS_RTC_Wakeup_Handler+0xb0>)
 8000b70:	4929      	ldr	r1, [pc, #164]	; (8000c18 <HW_TS_RTC_Wakeup_Handler+0xb4>)
 8000b72:	6823      	ldr	r3, [r4, #0]
 8000b74:	f04f 09ca 	mov.w	r9, #202	; 0xca
 8000b78:	f04f 0853 	mov.w	r8, #83	; 0x53
 8000b7c:	f8c3 9024 	str.w	r9, [r3, #36]	; 0x24
 8000b80:	f8c3 8024 	str.w	r8, [r3, #36]	; 0x24
 8000b84:	689a      	ldr	r2, [r3, #8]
 8000b86:	f422 6280 	bic.w	r2, r2, #1024	; 0x400
 8000b8a:	609a      	str	r2, [r3, #8]
 8000b8c:	4a23      	ldr	r2, [pc, #140]	; (8000c1c <HW_TS_RTC_Wakeup_Handler+0xb8>)
 8000b8e:	7812      	ldrb	r2, [r2, #0]
 8000b90:	2018      	movs	r0, #24
 8000b92:	b2d6      	uxtb	r6, r2
 8000b94:	4342      	muls	r2, r0
 8000b96:	188f      	adds	r7, r1, r2
 8000b98:	7b38      	ldrb	r0, [r7, #12]
 8000b9a:	2802      	cmp	r0, #2
 8000b9c:	d12d      	bne.n	8000bfa <HW_TS_RTC_Wakeup_Handler+0x96>
 8000b9e:	4b20      	ldr	r3, [pc, #128]	; (8000c20 <HW_TS_RTC_Wakeup_Handler+0xbc>)
 8000ba0:	f851 b002 	ldr.w	fp, [r1, r2]
 8000ba4:	f8d7 a010 	ldr.w	sl, [r7, #16]
 8000ba8:	781b      	ldrb	r3, [r3, #0]
 8000baa:	b30b      	cbz	r3, 8000bf0 <HW_TS_RTC_Wakeup_Handler+0x8c>
 8000bac:	7b7b      	ldrb	r3, [r7, #13]
 8000bae:	2b01      	cmp	r3, #1
 8000bb0:	b2d9      	uxtb	r1, r3
 8000bb2:	d117      	bne.n	8000be4 <HW_TS_RTC_Wakeup_Handler+0x80>
 8000bb4:	4630      	mov	r0, r6
 8000bb6:	f7ff fd1f 	bl	80005f8 <UnlinkTimer>
 8000bba:	f385 8810 	msr	PRIMASK, r5
 8000bbe:	6879      	ldr	r1, [r7, #4]
 8000bc0:	4630      	mov	r0, r6
 8000bc2:	f7ff ff21 	bl	8000a08 <HW_TS_Start>
 8000bc6:	6823      	ldr	r3, [r4, #0]
 8000bc8:	465a      	mov	r2, fp
 8000bca:	f8c3 9024 	str.w	r9, [r3, #36]	; 0x24
 8000bce:	4631      	mov	r1, r6
 8000bd0:	f8c3 8024 	str.w	r8, [r3, #36]	; 0x24
 8000bd4:	4650      	mov	r0, sl
 8000bd6:	f7ff ffc3 	bl	8000b60 <HW_TS_RTC_Int_AppNot>
 8000bda:	6823      	ldr	r3, [r4, #0]
 8000bdc:	22ff      	movs	r2, #255	; 0xff
 8000bde:	625a      	str	r2, [r3, #36]	; 0x24
 8000be0:	e8bd 8ff8 	ldmia.w	sp!, {r3, r4, r5, r6, r7, r8, r9, sl, fp, pc}
 8000be4:	f385 8810 	msr	PRIMASK, r5
 8000be8:	4630      	mov	r0, r6
 8000bea:	f7ff feb5 	bl	8000958 <HW_TS_Stop>
 8000bee:	e7ea      	b.n	8000bc6 <HW_TS_RTC_Wakeup_Handler+0x62>
 8000bf0:	f7ff fd66 	bl	80006c0 <RescheduleTimerList>
 8000bf4:	f385 8810 	msr	PRIMASK, r5
 8000bf8:	e7ef      	b.n	8000bda <HW_TS_RTC_Wakeup_Handler+0x76>
 8000bfa:	68da      	ldr	r2, [r3, #12]
 8000bfc:	0752      	lsls	r2, r2, #29
 8000bfe:	d5fc      	bpl.n	8000bfa <HW_TS_RTC_Wakeup_Handler+0x96>
 8000c00:	68da      	ldr	r2, [r3, #12]
 8000c02:	b2d2      	uxtb	r2, r2
 8000c04:	f462 6290 	orn	r2, r2, #1152	; 0x480
 8000c08:	60da      	str	r2, [r3, #12]
 8000c0a:	4b06      	ldr	r3, [pc, #24]	; (8000c24 <HW_TS_RTC_Wakeup_Handler+0xc0>)
 8000c0c:	f44f 2200 	mov.w	r2, #524288	; 0x80000
 8000c10:	60da      	str	r2, [r3, #12]
 8000c12:	e7ef      	b.n	8000bf4 <HW_TS_RTC_Wakeup_Handler+0x90>
 8000c14:	20000404 	.word	0x20000404
 8000c18:	200001c8 	.word	0x200001c8
 8000c1c:	200001bb 	.word	0x200001bb
 8000c20:	200001c7 	.word	0x200001c7
 8000c24:	58000800 	.word	0x58000800

08000c28 <HW_UART_Receive_IT>:
 8000c28:	b930      	cbnz	r0, 8000c38 <HW_UART_Receive_IT+0x10>
 8000c2a:	4804      	ldr	r0, [pc, #16]	; (8000c3c <HW_UART_Receive_IT+0x14>)
 8000c2c:	6003      	str	r3, [r0, #0]
 8000c2e:	4804      	ldr	r0, [pc, #16]	; (8000c40 <HW_UART_Receive_IT+0x18>)
 8000c30:	4b04      	ldr	r3, [pc, #16]	; (8000c44 <HW_UART_Receive_IT+0x1c>)
 8000c32:	6003      	str	r3, [r0, #0]
 8000c34:	f002 be02 	b.w	800383c <HAL_UART_Receive_IT>
 8000c38:	4770      	bx	lr
 8000c3a:	bf00      	nop
 8000c3c:	20000258 	.word	0x20000258
 8000c40:	20000428 	.word	0x20000428
 8000c44:	40013800 	.word	0x40013800

08000c48 <HAL_UART_RxCpltCallback>:
 8000c48:	6802      	ldr	r2, [r0, #0]
 8000c4a:	4b04      	ldr	r3, [pc, #16]	; (8000c5c <HAL_UART_RxCpltCallback+0x14>)
 8000c4c:	429a      	cmp	r2, r3
 8000c4e:	d103      	bne.n	8000c58 <HAL_UART_RxCpltCallback+0x10>
 8000c50:	4b03      	ldr	r3, [pc, #12]	; (8000c60 <HAL_UART_RxCpltCallback+0x18>)
 8000c52:	681b      	ldr	r3, [r3, #0]
 8000c54:	b103      	cbz	r3, 8000c58 <HAL_UART_RxCpltCallback+0x10>
 8000c56:	4718      	bx	r3
 8000c58:	4770      	bx	lr
 8000c5a:	bf00      	nop
 8000c5c:	40013800 	.word	0x40013800
 8000c60:	20000258 	.word	0x20000258

08000c64 <HAL_UART_TxCpltCallback>:
 8000c64:	6802      	ldr	r2, [r0, #0]
 8000c66:	4b04      	ldr	r3, [pc, #16]	; (8000c78 <HAL_UART_TxCpltCallback+0x14>)
 8000c68:	429a      	cmp	r2, r3
 8000c6a:	d103      	bne.n	8000c74 <HAL_UART_TxCpltCallback+0x10>
 8000c6c:	4b03      	ldr	r3, [pc, #12]	; (8000c7c <HAL_UART_TxCpltCallback+0x18>)
 8000c6e:	681b      	ldr	r3, [r3, #0]
 8000c70:	b103      	cbz	r3, 8000c74 <HAL_UART_TxCpltCallback+0x10>
 8000c72:	4718      	bx	r3
 8000c74:	4770      	bx	lr
 8000c76:	bf00      	nop
 8000c78:	40013800 	.word	0x40013800
 8000c7c:	2000025c 	.word	0x2000025c

08000c80 <LL_AHB1_GRP1_EnableClock>:
 8000c80:	f04f 43b0 	mov.w	r3, #1476395008	; 0x58000000
 8000c84:	b082      	sub	sp, #8
 8000c86:	6c9a      	ldr	r2, [r3, #72]	; 0x48
 8000c88:	4302      	orrs	r2, r0
 8000c8a:	649a      	str	r2, [r3, #72]	; 0x48
 8000c8c:	6c9b      	ldr	r3, [r3, #72]	; 0x48
 8000c8e:	4018      	ands	r0, r3
 8000c90:	9001      	str	r0, [sp, #4]
 8000c92:	9b01      	ldr	r3, [sp, #4]
 8000c94:	b002      	add	sp, #8
 8000c96:	4770      	bx	lr

08000c98 <LL_AHB2_GRP1_EnableClock>:
 8000c98:	f04f 43b0 	mov.w	r3, #1476395008	; 0x58000000
 8000c9c:	b082      	sub	sp, #8
 8000c9e:	6cda      	ldr	r2, [r3, #76]	; 0x4c
 8000ca0:	4302      	orrs	r2, r0
 8000ca2:	64da      	str	r2, [r3, #76]	; 0x4c
 8000ca4:	6cdb      	ldr	r3, [r3, #76]	; 0x4c
 8000ca6:	4018      	ands	r0, r3
 8000ca8:	9001      	str	r0, [sp, #4]
 8000caa:	9b01      	ldr	r3, [sp, #4]
 8000cac:	b002      	add	sp, #8
 8000cae:	4770      	bx	lr

08000cb0 <SystemClock_Config>:
 8000cb0:	b530      	push	{r4, r5, lr}
 8000cb2:	b09b      	sub	sp, #108	; 0x6c
 8000cb4:	2248      	movs	r2, #72	; 0x48
 8000cb6:	2100      	movs	r1, #0
 8000cb8:	a808      	add	r0, sp, #32
 8000cba:	f004 f901 	bl	8004ec0 <memset>
 8000cbe:	2100      	movs	r1, #0
 8000cc0:	221c      	movs	r2, #28
 8000cc2:	a801      	add	r0, sp, #4
 8000cc4:	f004 f8fc 	bl	8004ec0 <memset>
 8000cc8:	f001 f930 	bl	8001f2c <HAL_PWR_EnableBkUpAccess>
 8000ccc:	f04f 42b0 	mov.w	r2, #1476395008	; 0x58000000
 8000cd0:	2501      	movs	r5, #1
 8000cd2:	f8d2 3090 	ldr.w	r3, [r2, #144]	; 0x90
 8000cd6:	f023 0318 	bic.w	r3, r3, #24
 8000cda:	f8c2 3090 	str.w	r3, [r2, #144]	; 0x90
 8000cde:	f8d2 3400 	ldr.w	r3, [r2, #1024]	; 0x400
 8000ce2:	f423 63c0 	bic.w	r3, r3, #1536	; 0x600
 8000ce6:	f443 7300 	orr.w	r3, r3, #512	; 0x200
 8000cea:	f8c2 3400 	str.w	r3, [r2, #1024]	; 0x400
 8000cee:	f8d2 3400 	ldr.w	r3, [r2, #1024]	; 0x400
 8000cf2:	9512      	str	r5, [sp, #72]	; 0x48
 8000cf4:	f403 63c0 	and.w	r3, r3, #1536	; 0x600
 8000cf8:	9300      	str	r3, [sp, #0]
 8000cfa:	2247      	movs	r2, #71	; 0x47
 8000cfc:	9b00      	ldr	r3, [sp, #0]
 8000cfe:	f44f 3380 	mov.w	r3, #65536	; 0x10000
 8000d02:	e9cd 2308 	strd	r2, r3, [sp, #32]
 8000d06:	f44f 7380 	mov.w	r3, #256	; 0x100
 8000d0a:	2400      	movs	r4, #0
 8000d0c:	e9cd 530a 	strd	r5, r3, [sp, #40]	; 0x28
 8000d10:	a808      	add	r0, sp, #32
 8000d12:	2340      	movs	r3, #64	; 0x40
 8000d14:	930c      	str	r3, [sp, #48]	; 0x30
 8000d16:	9413      	str	r4, [sp, #76]	; 0x4c
 8000d18:	f001 fa0c 	bl	8002134 <HAL_RCC_OscConfig>
 8000d1c:	2302      	movs	r3, #2
 8000d1e:	216f      	movs	r1, #111	; 0x6f
 8000d20:	e9cd 1301 	strd	r1, r3, [sp, #4]
 8000d24:	a801      	add	r0, sp, #4
 8000d26:	4629      	mov	r1, r5
 8000d28:	e9cd 4403 	strd	r4, r4, [sp, #12]
 8000d2c:	e9cd 4405 	strd	r4, r4, [sp, #20]
 8000d30:	9407      	str	r4, [sp, #28]
 8000d32:	f001 fcc7 	bl	80026c4 <HAL_RCC_ClockConfig>
 8000d36:	b01b      	add	sp, #108	; 0x6c
 8000d38:	bd30      	pop	{r4, r5, pc}

08000d3a <PeriphCommonClock_Config>:
 8000d3a:	b500      	push	{lr}
 8000d3c:	b095      	sub	sp, #84	; 0x54
 8000d3e:	2240      	movs	r2, #64	; 0x40
 8000d40:	2100      	movs	r1, #0
 8000d42:	a801      	add	r0, sp, #4
 8000d44:	f004 f8bc 	bl	8004ec0 <memset>
 8000d48:	f44f 5340 	mov.w	r3, #12288	; 0x3000
 8000d4c:	9300      	str	r3, [sp, #0]
 8000d4e:	f44f 4180 	mov.w	r1, #16384	; 0x4000
 8000d52:	2302      	movs	r3, #2
 8000d54:	e9cd 1311 	strd	r1, r3, [sp, #68]	; 0x44
 8000d58:	4668      	mov	r0, sp
 8000d5a:	2310      	movs	r3, #16
 8000d5c:	9313      	str	r3, [sp, #76]	; 0x4c
 8000d5e:	f001 fddc 	bl	800291a <HAL_RCCEx_PeriphCLKConfig>
 8000d62:	b015      	add	sp, #84	; 0x54
 8000d64:	f85d fb04 	ldr.w	pc, [sp], #4

08000d68 <main>:
 8000d68:	b508      	push	{r3, lr}
 8000d6a:	f000 fe1d 	bl	80019a8 <HAL_Init>
 8000d6e:	f7ff fb63 	bl	8000438 <MX_APPE_Config>
 8000d72:	f7ff ff9d 	bl	8000cb0 <SystemClock_Config>
 8000d76:	f7ff ffe0 	bl	8000d3a <PeriphCommonClock_Config>
 8000d7a:	4824      	ldr	r0, [pc, #144]	; (8000e0c <main+0xa4>)
 8000d7c:	4b24      	ldr	r3, [pc, #144]	; (8000e10 <main+0xa8>)
 8000d7e:	6003      	str	r3, [r0, #0]
 8000d80:	f001 f8b2 	bl	8001ee8 <HAL_IPCC_Init>
 8000d84:	2004      	movs	r0, #4
 8000d86:	f7ff ff87 	bl	8000c98 <LL_AHB2_GRP1_EnableClock>
 8000d8a:	2001      	movs	r0, #1
 8000d8c:	f7ff ff84 	bl	8000c98 <LL_AHB2_GRP1_EnableClock>
 8000d90:	2002      	movs	r0, #2
 8000d92:	f7ff ff81 	bl	8000c98 <LL_AHB2_GRP1_EnableClock>
 8000d96:	2004      	movs	r0, #4
 8000d98:	f7ff ff72 	bl	8000c80 <LL_AHB1_GRP1_EnableClock>
 8000d9c:	2001      	movs	r0, #1
 8000d9e:	f7ff ff6f 	bl	8000c80 <LL_AHB1_GRP1_EnableClock>
 8000da2:	2002      	movs	r0, #2
 8000da4:	f7ff ff6c 	bl	8000c80 <LL_AHB1_GRP1_EnableClock>
 8000da8:	210f      	movs	r1, #15
 8000daa:	2200      	movs	r2, #0
 8000dac:	200e      	movs	r0, #14
 8000dae:	f000 fe67 	bl	8001a80 <HAL_NVIC_SetPriority>
 8000db2:	200e      	movs	r0, #14
 8000db4:	f000 fe96 	bl	8001ae4 <HAL_NVIC_EnableIRQ>
 8000db8:	210f      	movs	r1, #15
 8000dba:	2200      	movs	r2, #0
 8000dbc:	203a      	movs	r0, #58	; 0x3a
 8000dbe:	f000 fe5f 	bl	8001a80 <HAL_NVIC_SetPriority>
 8000dc2:	203a      	movs	r0, #58	; 0x3a
 8000dc4:	f000 fe8e 	bl	8001ae4 <HAL_NVIC_EnableIRQ>
 8000dc8:	4c12      	ldr	r4, [pc, #72]	; (8000e14 <main+0xac>)
 8000dca:	4b13      	ldr	r3, [pc, #76]	; (8000e18 <main+0xb0>)
 8000dcc:	2500      	movs	r5, #0
 8000dce:	220f      	movs	r2, #15
 8000dd0:	e9c4 3500 	strd	r3, r5, [r4]
 8000dd4:	4620      	mov	r0, r4
 8000dd6:	f647 73ff 	movw	r3, #32767	; 0x7fff
 8000dda:	e9c4 2302 	strd	r2, r3, [r4, #8]
 8000dde:	e9c4 5506 	strd	r5, r5, [r4, #24]
 8000de2:	6125      	str	r5, [r4, #16]
 8000de4:	6165      	str	r5, [r4, #20]
 8000de6:	f001 ffad 	bl	8002d44 <HAL_RTC_Init>
 8000dea:	462a      	mov	r2, r5
 8000dec:	4629      	mov	r1, r5
 8000dee:	4620      	mov	r0, r4
 8000df0:	f002 f80a 	bl	8002e08 <HAL_RTCEx_SetWakeUpTimer_IT>
 8000df4:	4b09      	ldr	r3, [pc, #36]	; (8000e1c <main+0xb4>)
 8000df6:	480a      	ldr	r0, [pc, #40]	; (8000e20 <main+0xb8>)
 8000df8:	e9c0 3500 	strd	r3, r5, [r0]
 8000dfc:	f001 ff52 	bl	8002ca4 <HAL_RNG_Init>
 8000e00:	f7ff fb40 	bl	8000484 <MX_APPE_Init>
 8000e04:	f7ff fbc8 	bl	8000598 <MX_APPE_Process>
 8000e08:	e7fc      	b.n	8000e04 <main+0x9c>
 8000e0a:	bf00      	nop
 8000e0c:	20000320 	.word	0x20000320
 8000e10:	58000c00 	.word	0x58000c00
 8000e14:	20000404 	.word	0x20000404
 8000e18:	40002800 	.word	0x40002800
 8000e1c:	58001000 	.word	0x58001000
 8000e20:	200003f0 	.word	0x200003f0

08000e24 <Error_Handler>:
 8000e24:	4770      	bx	lr
	...

08000e28 <PWR_EnterSleepMode>:
 8000e28:	b508      	push	{r3, lr}
 8000e2a:	f000 fdf1 	bl	8001a10 <HAL_SuspendTick>
 8000e2e:	4a03      	ldr	r2, [pc, #12]	; (8000e3c <PWR_EnterSleepMode+0x14>)
 8000e30:	6913      	ldr	r3, [r2, #16]
 8000e32:	f023 0304 	bic.w	r3, r3, #4
 8000e36:	6113      	str	r3, [r2, #16]
 8000e38:	bf30      	wfi
 8000e3a:	bd08      	pop	{r3, pc}
 8000e3c:	e000ed00 	.word	0xe000ed00

08000e40 <PWR_ExitOffMode>:
 8000e40:	f000 bded 	b.w	8001a1e <HAL_ResumeTick>

08000e44 <PWR_ExitStopMode>:
 8000e44:	4b18      	ldr	r3, [pc, #96]	; (8000ea8 <PWR_ExitStopMode+0x64>)
 8000e46:	f44f 6280 	mov.w	r2, #1024	; 0x400
 8000e4a:	611a      	str	r2, [r3, #16]
 8000e4c:	f102 4200 	add.w	r2, r2, #2147483648	; 0x80000000
 8000e50:	f8d3 108c 	ldr.w	r1, [r3, #140]	; 0x8c
 8000e54:	4291      	cmp	r1, r2
 8000e56:	d1fb      	bne.n	8000e50 <PWR_ExitStopMode+0xc>
 8000e58:	f04f 43b0 	mov.w	r3, #1476395008	; 0x58000000
 8000e5c:	689a      	ldr	r2, [r3, #8]
 8000e5e:	f002 020c 	and.w	r2, r2, #12
 8000e62:	2a04      	cmp	r2, #4
 8000e64:	d11a      	bne.n	8000e9c <PWR_ExitStopMode+0x58>
 8000e66:	681a      	ldr	r2, [r3, #0]
 8000e68:	4910      	ldr	r1, [pc, #64]	; (8000eac <PWR_ExitStopMode+0x68>)
 8000e6a:	f442 3280 	orr.w	r2, r2, #65536	; 0x10000
 8000e6e:	601a      	str	r2, [r3, #0]
 8000e70:	680a      	ldr	r2, [r1, #0]
 8000e72:	f022 0207 	bic.w	r2, r2, #7
 8000e76:	f042 0201 	orr.w	r2, r2, #1
 8000e7a:	600a      	str	r2, [r1, #0]
 8000e7c:	681a      	ldr	r2, [r3, #0]
 8000e7e:	0392      	lsls	r2, r2, #14
 8000e80:	d5fc      	bpl.n	8000e7c <PWR_ExitStopMode+0x38>
 8000e82:	689a      	ldr	r2, [r3, #8]
 8000e84:	f022 0203 	bic.w	r2, r2, #3
 8000e88:	f042 0202 	orr.w	r2, r2, #2
 8000e8c:	609a      	str	r2, [r3, #8]
 8000e8e:	f04f 42b0 	mov.w	r2, #1476395008	; 0x58000000
 8000e92:	6893      	ldr	r3, [r2, #8]
 8000e94:	f003 030c 	and.w	r3, r3, #12
 8000e98:	2b08      	cmp	r3, #8
 8000e9a:	d1fa      	bne.n	8000e92 <PWR_ExitStopMode+0x4e>
 8000e9c:	4b02      	ldr	r3, [pc, #8]	; (8000ea8 <PWR_ExitStopMode+0x64>)
 8000e9e:	f44f 6280 	mov.w	r2, #1024	; 0x400
 8000ea2:	60da      	str	r2, [r3, #12]
 8000ea4:	f000 bdbb 	b.w	8001a1e <HAL_ResumeTick>
 8000ea8:	58001400 	.word	0x58001400
 8000eac:	58004000 	.word	0x58004000

08000eb0 <PWR_ExitSleepMode>:
 8000eb0:	f000 bdb5 	b.w	8001a1e <HAL_ResumeTick>

08000eb4 <Switch_On_HSI>:
 8000eb4:	f04f 43b0 	mov.w	r3, #1476395008	; 0x58000000
 8000eb8:	681a      	ldr	r2, [r3, #0]
 8000eba:	f442 7280 	orr.w	r2, r2, #256	; 0x100
 8000ebe:	601a      	str	r2, [r3, #0]
 8000ec0:	681a      	ldr	r2, [r3, #0]
 8000ec2:	0552      	lsls	r2, r2, #21
 8000ec4:	d5fc      	bpl.n	8000ec0 <Switch_On_HSI+0xc>
 8000ec6:	689a      	ldr	r2, [r3, #8]
 8000ec8:	f022 0203 	bic.w	r2, r2, #3
 8000ecc:	f042 0201 	orr.w	r2, r2, #1
 8000ed0:	609a      	str	r2, [r3, #8]
 8000ed2:	6a5a      	ldr	r2, [r3, #36]	; 0x24
 8000ed4:	f022 0203 	bic.w	r2, r2, #3
 8000ed8:	625a      	str	r2, [r3, #36]	; 0x24
 8000eda:	f04f 42b0 	mov.w	r2, #1476395008	; 0x58000000
 8000ede:	6893      	ldr	r3, [r2, #8]
 8000ee0:	f003 030c 	and.w	r3, r3, #12
 8000ee4:	2b04      	cmp	r3, #4
 8000ee6:	d1fa      	bne.n	8000ede <Switch_On_HSI+0x2a>
 8000ee8:	4770      	bx	lr
	...

08000eec <EnterLowPower>:
 8000eec:	b508      	push	{r3, lr}
 8000eee:	4a12      	ldr	r2, [pc, #72]	; (8000f38 <EnterLowPower+0x4c>)
 8000ef0:	4b12      	ldr	r3, [pc, #72]	; (8000f3c <EnterLowPower+0x50>)
 8000ef2:	f8d2 108c 	ldr.w	r1, [r2, #140]	; 0x8c
 8000ef6:	4299      	cmp	r1, r3
 8000ef8:	d1fb      	bne.n	8000ef2 <EnterLowPower+0x6>
 8000efa:	f8d2 2090 	ldr.w	r2, [r2, #144]	; 0x90
 8000efe:	429a      	cmp	r2, r3
 8000f00:	d111      	bne.n	8000f26 <EnterLowPower+0x3a>
 8000f02:	4b0f      	ldr	r3, [pc, #60]	; (8000f40 <EnterLowPower+0x54>)
 8000f04:	f8d3 2088 	ldr.w	r2, [r3, #136]	; 0x88
 8000f08:	0412      	lsls	r2, r2, #16
 8000f0a:	d408      	bmi.n	8000f1e <EnterLowPower+0x32>
 8000f0c:	f8d3 3088 	ldr.w	r3, [r3, #136]	; 0x88
 8000f10:	055b      	lsls	r3, r3, #21
 8000f12:	d404      	bmi.n	8000f1e <EnterLowPower+0x32>
 8000f14:	4b08      	ldr	r3, [pc, #32]	; (8000f38 <EnterLowPower+0x4c>)
 8000f16:	f44f 6280 	mov.w	r2, #1024	; 0x400
 8000f1a:	60da      	str	r2, [r3, #12]
 8000f1c:	bd08      	pop	{r3, pc}
 8000f1e:	4b06      	ldr	r3, [pc, #24]	; (8000f38 <EnterLowPower+0x4c>)
 8000f20:	f44f 6280 	mov.w	r2, #1024	; 0x400
 8000f24:	611a      	str	r2, [r3, #16]
 8000f26:	f7ff ffc5 	bl	8000eb4 <Switch_On_HSI>
 8000f2a:	4a06      	ldr	r2, [pc, #24]	; (8000f44 <EnterLowPower+0x58>)
 8000f2c:	6813      	ldr	r3, [r2, #0]
 8000f2e:	f023 0307 	bic.w	r3, r3, #7
 8000f32:	6013      	str	r3, [r2, #0]
 8000f34:	e7ee      	b.n	8000f14 <EnterLowPower+0x28>
 8000f36:	bf00      	nop
 8000f38:	58001400 	.word	0x58001400
 8000f3c:	80000400 	.word	0x80000400
 8000f40:	58000400 	.word	0x58000400
 8000f44:	58004000 	.word	0x58004000

08000f48 <PWR_EnterOffMode>:
 8000f48:	b508      	push	{r3, lr}
 8000f4a:	f000 fd61 	bl	8001a10 <HAL_SuspendTick>
 8000f4e:	f7ff ffcd 	bl	8000eec <EnterLowPower>
 8000f52:	4a08      	ldr	r2, [pc, #32]	; (8000f74 <PWR_EnterOffMode+0x2c>)
 8000f54:	231f      	movs	r3, #31
 8000f56:	6193      	str	r3, [r2, #24]
 8000f58:	6813      	ldr	r3, [r2, #0]
 8000f5a:	f023 0307 	bic.w	r3, r3, #7
 8000f5e:	f043 0303 	orr.w	r3, r3, #3
 8000f62:	6013      	str	r3, [r2, #0]
 8000f64:	4a04      	ldr	r2, [pc, #16]	; (8000f78 <PWR_EnterOffMode+0x30>)
 8000f66:	6913      	ldr	r3, [r2, #16]
 8000f68:	f043 0304 	orr.w	r3, r3, #4
 8000f6c:	6113      	str	r3, [r2, #16]
 8000f6e:	bf30      	wfi
 8000f70:	bd08      	pop	{r3, pc}
 8000f72:	bf00      	nop
 8000f74:	58000400 	.word	0x58000400
 8000f78:	e000ed00 	.word	0xe000ed00

08000f7c <PWR_EnterStopMode>:
 8000f7c:	b508      	push	{r3, lr}
 8000f7e:	f000 fd47 	bl	8001a10 <HAL_SuspendTick>
 8000f82:	f7ff ffb3 	bl	8000eec <EnterLowPower>
 8000f86:	4a07      	ldr	r2, [pc, #28]	; (8000fa4 <PWR_EnterStopMode+0x28>)
 8000f88:	6813      	ldr	r3, [r2, #0]
 8000f8a:	f023 0307 	bic.w	r3, r3, #7
 8000f8e:	f043 0302 	orr.w	r3, r3, #2
 8000f92:	6013      	str	r3, [r2, #0]
 8000f94:	4a04      	ldr	r2, [pc, #16]	; (8000fa8 <PWR_EnterStopMode+0x2c>)
 8000f96:	6913      	ldr	r3, [r2, #16]
 8000f98:	f043 0304 	orr.w	r3, r3, #4
 8000f9c:	6113      	str	r3, [r2, #16]
 8000f9e:	bf30      	wfi
 8000fa0:	bd08      	pop	{r3, pc}
 8000fa2:	bf00      	nop
 8000fa4:	58000400 	.word	0x58000400
 8000fa8:	e000ed00 	.word	0xe000ed00

08000fac <LL_AHB3_GRP1_EnableClock>:
 8000fac:	f04f 43b0 	mov.w	r3, #1476395008	; 0x58000000
 8000fb0:	b082      	sub	sp, #8
 8000fb2:	6d1a      	ldr	r2, [r3, #80]	; 0x50
 8000fb4:	4302      	orrs	r2, r0
 8000fb6:	651a      	str	r2, [r3, #80]	; 0x50
 8000fb8:	6d1b      	ldr	r3, [r3, #80]	; 0x50
 8000fba:	4018      	ands	r0, r3
 8000fbc:	9001      	str	r0, [sp, #4]
 8000fbe:	9b01      	ldr	r3, [sp, #4]
 8000fc0:	b002      	add	sp, #8
 8000fc2:	4770      	bx	lr

08000fc4 <HAL_MspInit>:
 8000fc4:	b508      	push	{r3, lr}
 8000fc6:	f44f 2000 	mov.w	r0, #524288	; 0x80000
 8000fca:	f7ff ffef 	bl	8000fac <LL_AHB3_GRP1_EnableClock>
 8000fce:	2200      	movs	r2, #0
 8000fd0:	202e      	movs	r0, #46	; 0x2e
 8000fd2:	4611      	mov	r1, r2
 8000fd4:	f000 fd54 	bl	8001a80 <HAL_NVIC_SetPriority>
 8000fd8:	e8bd 4008 	ldmia.w	sp!, {r3, lr}
 8000fdc:	202e      	movs	r0, #46	; 0x2e
 8000fde:	f000 bd81 	b.w	8001ae4 <HAL_NVIC_EnableIRQ>
	...

08000fe4 <HAL_IPCC_MspInit>:
 8000fe4:	b508      	push	{r3, lr}
 8000fe6:	6802      	ldr	r2, [r0, #0]
 8000fe8:	4b0c      	ldr	r3, [pc, #48]	; (800101c <HAL_IPCC_MspInit+0x38>)
 8000fea:	429a      	cmp	r2, r3
 8000fec:	d115      	bne.n	800101a <HAL_IPCC_MspInit+0x36>
 8000fee:	f44f 1080 	mov.w	r0, #1048576	; 0x100000
 8000ff2:	f7ff ffdb 	bl	8000fac <LL_AHB3_GRP1_EnableClock>
 8000ff6:	2200      	movs	r2, #0
 8000ff8:	4611      	mov	r1, r2
 8000ffa:	202c      	movs	r0, #44	; 0x2c
 8000ffc:	f000 fd40 	bl	8001a80 <HAL_NVIC_SetPriority>
 8001000:	202c      	movs	r0, #44	; 0x2c
 8001002:	f000 fd6f 	bl	8001ae4 <HAL_NVIC_EnableIRQ>
 8001006:	2200      	movs	r2, #0
 8001008:	202d      	movs	r0, #45	; 0x2d
 800100a:	4611      	mov	r1, r2
 800100c:	f000 fd38 	bl	8001a80 <HAL_NVIC_SetPriority>
 8001010:	e8bd 4008 	ldmia.w	sp!, {r3, lr}
 8001014:	202d      	movs	r0, #45	; 0x2d
 8001016:	f000 bd65 	b.w	8001ae4 <HAL_NVIC_EnableIRQ>
 800101a:	bd08      	pop	{r3, pc}
 800101c:	58000c00 	.word	0x58000c00

08001020 <HAL_RNG_MspInit>:
 8001020:	b510      	push	{r4, lr}
 8001022:	4604      	mov	r4, r0
 8001024:	b094      	sub	sp, #80	; 0x50
 8001026:	2250      	movs	r2, #80	; 0x50
 8001028:	2100      	movs	r1, #0
 800102a:	4668      	mov	r0, sp
 800102c:	f003 ff48 	bl	8004ec0 <memset>
 8001030:	6822      	ldr	r2, [r4, #0]
 8001032:	4b0a      	ldr	r3, [pc, #40]	; (800105c <HAL_RNG_MspInit+0x3c>)
 8001034:	429a      	cmp	r2, r3
 8001036:	d10f      	bne.n	8001058 <HAL_RNG_MspInit+0x38>
 8001038:	f44f 7300 	mov.w	r3, #512	; 0x200
 800103c:	9300      	str	r3, [sp, #0]
 800103e:	4668      	mov	r0, sp
 8001040:	f04f 5380 	mov.w	r3, #268435456	; 0x10000000
 8001044:	930e      	str	r3, [sp, #56]	; 0x38
 8001046:	f001 fc68 	bl	800291a <HAL_RCCEx_PeriphCLKConfig>
 800104a:	b108      	cbz	r0, 8001050 <HAL_RNG_MspInit+0x30>
 800104c:	f7ff feea 	bl	8000e24 <Error_Handler>
 8001050:	f44f 2080 	mov.w	r0, #262144	; 0x40000
 8001054:	f7ff ffaa 	bl	8000fac <LL_AHB3_GRP1_EnableClock>
 8001058:	b014      	add	sp, #80	; 0x50
 800105a:	bd10      	pop	{r4, pc}
 800105c:	58001000 	.word	0x58001000

08001060 <HAL_RTC_MspInit>:
 8001060:	b510      	push	{r4, lr}
 8001062:	4604      	mov	r4, r0
 8001064:	b096      	sub	sp, #88	; 0x58
 8001066:	2250      	movs	r2, #80	; 0x50
 8001068:	2100      	movs	r1, #0
 800106a:	a802      	add	r0, sp, #8
 800106c:	f003 ff28 	bl	8004ec0 <memset>
 8001070:	6822      	ldr	r2, [r4, #0]
 8001072:	4b15      	ldr	r3, [pc, #84]	; (80010c8 <HAL_RTC_MspInit+0x68>)
 8001074:	429a      	cmp	r2, r3
 8001076:	d124      	bne.n	80010c2 <HAL_RTC_MspInit+0x62>
 8001078:	f44f 6300 	mov.w	r3, #2048	; 0x800
 800107c:	9302      	str	r3, [sp, #8]
 800107e:	a802      	add	r0, sp, #8
 8001080:	f44f 7380 	mov.w	r3, #256	; 0x100
 8001084:	9312      	str	r3, [sp, #72]	; 0x48
 8001086:	f001 fc48 	bl	800291a <HAL_RCCEx_PeriphCLKConfig>
 800108a:	b108      	cbz	r0, 8001090 <HAL_RTC_MspInit+0x30>
 800108c:	f7ff feca 	bl	8000e24 <Error_Handler>
 8001090:	f04f 43b0 	mov.w	r3, #1476395008	; 0x58000000
 8001094:	2003      	movs	r0, #3
 8001096:	f8d3 2090 	ldr.w	r2, [r3, #144]	; 0x90
 800109a:	f442 4200 	orr.w	r2, r2, #32768	; 0x8000
 800109e:	f8c3 2090 	str.w	r2, [r3, #144]	; 0x90
 80010a2:	6d9a      	ldr	r2, [r3, #88]	; 0x58
 80010a4:	f442 6280 	orr.w	r2, r2, #1024	; 0x400
 80010a8:	659a      	str	r2, [r3, #88]	; 0x58
 80010aa:	6d9b      	ldr	r3, [r3, #88]	; 0x58
 80010ac:	2200      	movs	r2, #0
 80010ae:	f403 6380 	and.w	r3, r3, #1024	; 0x400
 80010b2:	9301      	str	r3, [sp, #4]
 80010b4:	4611      	mov	r1, r2
 80010b6:	9b01      	ldr	r3, [sp, #4]
 80010b8:	f000 fce2 	bl	8001a80 <HAL_NVIC_SetPriority>
 80010bc:	2003      	movs	r0, #3
 80010be:	f000 fd11 	bl	8001ae4 <HAL_NVIC_EnableIRQ>
 80010c2:	b016      	add	sp, #88	; 0x58
 80010c4:	bd10      	pop	{r4, pc}
 80010c6:	bf00      	nop
 80010c8:	40002800 	.word	0x40002800

080010cc <NMI_Handler>:
 80010cc:	4770      	bx	lr

080010ce <HardFault_Handler>:
 80010ce:	e7fe      	b.n	80010ce <HardFault_Handler>

080010d0 <MemManage_Handler>:
 80010d0:	e7fe      	b.n	80010d0 <MemManage_Handler>

080010d2 <BusFault_Handler>:
 80010d2:	e7fe      	b.n	80010d2 <BusFault_Handler>

080010d4 <UsageFault_Handler>:
 80010d4:	e7fe      	b.n	80010d4 <UsageFault_Handler>

080010d6 <SVC_Handler>:
 80010d6:	4770      	bx	lr

080010d8 <DebugMon_Handler>:
 80010d8:	4770      	bx	lr

080010da <PendSV_Handler>:
 80010da:	4770      	bx	lr

080010dc <SysTick_Handler>:
 80010dc:	f000 bc7a 	b.w	80019d4 <HAL_IncTick>

080010e0 <RTC_WKUP_IRQHandler>:
 80010e0:	f7ff bd40 	b.w	8000b64 <HW_TS_RTC_Wakeup_Handler>

080010e4 <DMA1_Channel4_IRQHandler>:
 80010e4:	4801      	ldr	r0, [pc, #4]	; (80010ec <DMA1_Channel4_IRQHandler+0x8>)
 80010e6:	f000 bdbf 	b.w	8001c68 <HAL_DMA_IRQHandler>
 80010ea:	bf00      	nop
 80010ec:	20000260 	.word	0x20000260

080010f0 <USART1_IRQHandler>:
 80010f0:	4801      	ldr	r0, [pc, #4]	; (80010f8 <USART1_IRQHandler+0x8>)
 80010f2:	f001 bf39 	b.w	8002f68 <HAL_UART_IRQHandler>
 80010f6:	bf00      	nop
 80010f8:	20000428 	.word	0x20000428

080010fc <LPUART1_IRQHandler>:
 80010fc:	4801      	ldr	r0, [pc, #4]	; (8001104 <LPUART1_IRQHandler+0x8>)
 80010fe:	f001 bf33 	b.w	8002f68 <HAL_UART_IRQHandler>
 8001102:	bf00      	nop
 8001104:	2000035c 	.word	0x2000035c

08001108 <IPCC_C1_RX_IRQHandler>:
 8001108:	f000 bb44 	b.w	8001794 <HW_IPCC_Rx_Handler>

0800110c <IPCC_C1_TX_IRQHandler>:
 800110c:	f000 baf2 	b.w	80016f4 <HW_IPCC_Tx_Handler>

08001110 <HSEM_IRQHandler>:
 8001110:	f000 becc 	b.w	8001eac <HAL_HSEM_IRQHandler>

08001114 <DMA2_Channel4_IRQHandler>:
 8001114:	4801      	ldr	r0, [pc, #4]	; (800111c <DMA2_Channel4_IRQHandler+0x8>)
 8001116:	f000 bda7 	b.w	8001c68 <HAL_DMA_IRQHandler>
 800111a:	bf00      	nop
 800111c:	200002c0 	.word	0x200002c0

08001120 <EXTI4_IRQHandler>:
 8001120:	2010      	movs	r0, #16
 8001122:	f000 beb5 	b.w	8001e90 <HAL_GPIO_EXTI_IRQHandler>

08001126 <EXTI0_IRQHandler>:
 8001126:	2001      	movs	r0, #1
 8001128:	f000 beb2 	b.w	8001e90 <HAL_GPIO_EXTI_IRQHandler>

0800112c <EXTI1_IRQHandler>:
 800112c:	2002      	movs	r0, #2
 800112e:	f000 beaf 	b.w	8001e90 <HAL_GPIO_EXTI_IRQHandler>

08001132 <Adv_Mgr>:
 8001132:	2100      	movs	r1, #0
 8001134:	2001      	movs	r0, #1
 8001136:	f003 bd5d 	b.w	8004bf4 <UTIL_SEQ_SetTask>

0800113a <BLE_UserEvtRx>:
 800113a:	b510      	push	{r4, lr}
 800113c:	4604      	mov	r4, r0
 800113e:	6840      	ldr	r0, [r0, #4]
 8001140:	3008      	adds	r0, #8
 8001142:	f003 fbc7 	bl	80048d4 <SVCCTL_UserEvtRx>
 8001146:	3800      	subs	r0, #0
 8001148:	bf18      	it	ne
 800114a:	2001      	movne	r0, #1
 800114c:	7020      	strb	r0, [r4, #0]
 800114e:	bd10      	pop	{r4, pc}

08001150 <BLE_StatusNot>:
 8001150:	b110      	cbz	r0, 8001158 <BLE_StatusNot+0x8>
 8001152:	2801      	cmp	r0, #1
 8001154:	d003      	beq.n	800115e <BLE_StatusNot+0xe>
 8001156:	4770      	bx	lr
 8001158:	203f      	movs	r0, #63	; 0x3f
 800115a:	f003 bd61 	b.w	8004c20 <UTIL_SEQ_PauseTask>
 800115e:	203f      	movs	r0, #63	; 0x3f
 8001160:	f003 bd6c 	b.w	8004c3c <UTIL_SEQ_ResumeTask>

08001164 <Adv_Request>:
 8001164:	b5f0      	push	{r4, r5, r6, r7, lr}
 8001166:	2801      	cmp	r0, #1
 8001168:	bf08      	it	eq
 800116a:	4b1f      	ldreq	r3, [pc, #124]	; (80011e8 <Adv_Request+0x84>)
 800116c:	4d1f      	ldr	r5, [pc, #124]	; (80011ec <Adv_Request+0x88>)
 800116e:	bf04      	itt	eq
 8001170:	881e      	ldrheq	r6, [r3, #0]
 8001172:	4b1f      	ldreq	r3, [pc, #124]	; (80011f0 <Adv_Request+0x8c>)
 8001174:	4604      	mov	r4, r0
 8001176:	b089      	sub	sp, #36	; 0x24
 8001178:	f895 0081 	ldrb.w	r0, [r5, #129]	; 0x81
 800117c:	bf0e      	itee	eq
 800117e:	881f      	ldrheq	r7, [r3, #0]
 8001180:	f44f 677a 	movne.w	r7, #4000	; 0xfa0
 8001184:	f44f 66c8 	movne.w	r6, #1600	; 0x640
 8001188:	f7ff fbe6 	bl	8000958 <HW_TS_Stop>
 800118c:	2c02      	cmp	r4, #2
 800118e:	d106      	bne.n	800119e <Adv_Request+0x3a>
 8001190:	f895 3080 	ldrb.w	r3, [r5, #128]	; 0x80
 8001194:	3b01      	subs	r3, #1
 8001196:	2b01      	cmp	r3, #1
 8001198:	d801      	bhi.n	800119e <Adv_Request+0x3a>
 800119a:	f002 fb75 	bl	8003888 <aci_gap_set_non_discoverable>
 800119e:	4a15      	ldr	r2, [pc, #84]	; (80011f4 <Adv_Request+0x90>)
 80011a0:	9204      	str	r2, [sp, #16]
 80011a2:	7e2a      	ldrb	r2, [r5, #24]
 80011a4:	9203      	str	r2, [sp, #12]
 80011a6:	4a14      	ldr	r2, [pc, #80]	; (80011f8 <Adv_Request+0x94>)
 80011a8:	9202      	str	r2, [sp, #8]
 80011aa:	2300      	movs	r3, #0
 80011ac:	2206      	movs	r2, #6
 80011ae:	e9cd 3200 	strd	r3, r2, [sp]
 80011b2:	4631      	mov	r1, r6
 80011b4:	e9cd 3305 	strd	r3, r3, [sp, #20]
 80011b8:	463a      	mov	r2, r7
 80011ba:	4618      	mov	r0, r3
 80011bc:	f885 4080 	strb.w	r4, [r5, #128]	; 0x80
 80011c0:	f002 fb80 	bl	80038c4 <aci_gap_set_discoverable>
 80011c4:	490d      	ldr	r1, [pc, #52]	; (80011fc <Adv_Request+0x98>)
 80011c6:	200e      	movs	r0, #14
 80011c8:	f002 fcc4 	bl	8003b54 <aci_gap_update_adv_data>
 80011cc:	b948      	cbnz	r0, 80011e2 <Adv_Request+0x7e>
 80011ce:	2c01      	cmp	r4, #1
 80011d0:	d107      	bne.n	80011e2 <Adv_Request+0x7e>
 80011d2:	490b      	ldr	r1, [pc, #44]	; (8001200 <Adv_Request+0x9c>)
 80011d4:	f895 0081 	ldrb.w	r0, [r5, #129]	; 0x81
 80011d8:	b009      	add	sp, #36	; 0x24
 80011da:	e8bd 40f0 	ldmia.w	sp!, {r4, r5, r6, r7, lr}
 80011de:	f7ff bc13 	b.w	8000a08 <HW_TS_Start>
 80011e2:	b009      	add	sp, #36	; 0x24
 80011e4:	bdf0      	pop	{r4, r5, r6, r7, pc}
 80011e6:	bf00      	nop
 80011e8:	200004be 	.word	0x200004be
 80011ec:	200004c0 	.word	0x200004c0
 80011f0:	200004bc 	.word	0x200004bc
 80011f4:	200004d9 	.word	0x200004d9
 80011f8:	080050da 	.word	0x080050da
 80011fc:	20000008 	.word	0x20000008
 8001200:	0001e046 	.word	0x0001e046

08001204 <Adv_Update>:
 8001204:	2002      	movs	r0, #2
 8001206:	f7ff bfad 	b.w	8001164 <Adv_Request>
	...

0800120c <APP_BLE_Init>:
 800120c:	b570      	push	{r4, r5, r6, lr}
 800120e:	4b68      	ldr	r3, [pc, #416]	; (80013b0 <APP_BLE_Init+0x1a4>)
 8001210:	b09a      	sub	sp, #104	; 0x68
 8001212:	aa0b      	add	r2, sp, #44	; 0x2c
 8001214:	f103 0538 	add.w	r5, r3, #56	; 0x38
 8001218:	4616      	mov	r6, r2
 800121a:	6818      	ldr	r0, [r3, #0]
 800121c:	6859      	ldr	r1, [r3, #4]
 800121e:	4614      	mov	r4, r2
 8001220:	c403      	stmia	r4!, {r0, r1}
 8001222:	3308      	adds	r3, #8
 8001224:	42ab      	cmp	r3, r5
 8001226:	4622      	mov	r2, r4
 8001228:	d1f7      	bne.n	800121a <APP_BLE_Init+0xe>
 800122a:	881b      	ldrh	r3, [r3, #0]
 800122c:	8023      	strh	r3, [r4, #0]
 800122e:	ad09      	add	r5, sp, #36	; 0x24
 8001230:	4b60      	ldr	r3, [pc, #384]	; (80013b4 <APP_BLE_Init+0x1a8>)
 8001232:	4861      	ldr	r0, [pc, #388]	; (80013b8 <APP_BLE_Init+0x1ac>)
 8001234:	9309      	str	r3, [sp, #36]	; 0x24
 8001236:	4629      	mov	r1, r5
 8001238:	4b60      	ldr	r3, [pc, #384]	; (80013bc <APP_BLE_Init+0x1b0>)
 800123a:	930a      	str	r3, [sp, #40]	; 0x28
 800123c:	f002 ffa4 	bl	8004188 <hci_init>
 8001240:	2101      	movs	r1, #1
 8001242:	2002      	movs	r0, #2
 8001244:	f003 fca0 	bl	8004b88 <UTIL_LPM_SetOffMode>
 8001248:	2004      	movs	r0, #4
 800124a:	4a5d      	ldr	r2, [pc, #372]	; (80013c0 <APP_BLE_Init+0x1b4>)
 800124c:	2100      	movs	r1, #0
 800124e:	f003 fdf5 	bl	8004e3c <UTIL_SEQ_RegTask>
 8001252:	4630      	mov	r0, r6
 8001254:	f003 f992 	bl	800457c <SHCI_C2_BLE_Init>
 8001258:	b108      	cbz	r0, 800125e <APP_BLE_Init+0x52>
 800125a:	f7ff fde3 	bl	8000e24 <Error_Handler>
 800125e:	f44f 7350 	mov.w	r3, #832	; 0x340
 8001262:	f8ad 301c 	strh.w	r3, [sp, #28]
 8001266:	f002 fea9 	bl	8003fbc <hci_reset>
 800126a:	4b56      	ldr	r3, [pc, #344]	; (80013c4 <APP_BLE_Init+0x1b8>)
 800126c:	f8d3 2580 	ldr.w	r2, [r3, #1408]	; 0x580
 8001270:	1c51      	adds	r1, r2, #1
 8001272:	f000 8094 	beq.w	800139e <APP_BLE_Init+0x192>
 8001276:	4c54      	ldr	r4, [pc, #336]	; (80013c8 <APP_BLE_Init+0x1bc>)
 8001278:	f8d3 3584 	ldr.w	r3, [r3, #1412]	; 0x584
 800127c:	7022      	strb	r2, [r4, #0]
 800127e:	0a12      	lsrs	r2, r2, #8
 8001280:	7062      	strb	r2, [r4, #1]
 8001282:	0a1a      	lsrs	r2, r3, #8
 8001284:	70a3      	strb	r3, [r4, #2]
 8001286:	70e2      	strb	r2, [r4, #3]
 8001288:	0c1a      	lsrs	r2, r3, #16
 800128a:	0e1b      	lsrs	r3, r3, #24
 800128c:	7122      	strb	r2, [r4, #4]
 800128e:	7163      	strb	r3, [r4, #5]
 8001290:	4622      	mov	r2, r4
 8001292:	2106      	movs	r1, #6
 8001294:	2000      	movs	r0, #0
 8001296:	f002 fe3d 	bl	8003f14 <aci_hal_write_config_data>
 800129a:	4b4c      	ldr	r3, [pc, #304]	; (80013cc <APP_BLE_Init+0x1c0>)
 800129c:	7962      	ldrb	r2, [r4, #5]
 800129e:	721a      	strb	r2, [r3, #8]
 80012a0:	7922      	ldrb	r2, [r4, #4]
 80012a2:	725a      	strb	r2, [r3, #9]
 80012a4:	78e2      	ldrb	r2, [r4, #3]
 80012a6:	729a      	strb	r2, [r3, #10]
 80012a8:	78a2      	ldrb	r2, [r4, #2]
 80012aa:	72da      	strb	r2, [r3, #11]
 80012ac:	7862      	ldrb	r2, [r4, #1]
 80012ae:	731a      	strb	r2, [r3, #12]
 80012b0:	7822      	ldrb	r2, [r4, #0]
 80012b2:	735a      	strb	r2, [r3, #13]
 80012b4:	2110      	movs	r1, #16
 80012b6:	4a46      	ldr	r2, [pc, #280]	; (80013d0 <APP_BLE_Init+0x1c4>)
 80012b8:	4c46      	ldr	r4, [pc, #280]	; (80013d4 <APP_BLE_Init+0x1c8>)
 80012ba:	2018      	movs	r0, #24
 80012bc:	f002 fe2a 	bl	8003f14 <aci_hal_write_config_data>
 80012c0:	4a45      	ldr	r2, [pc, #276]	; (80013d8 <APP_BLE_Init+0x1cc>)
 80012c2:	2110      	movs	r1, #16
 80012c4:	2008      	movs	r0, #8
 80012c6:	f002 fe25 	bl	8003f14 <aci_hal_write_config_data>
 80012ca:	2118      	movs	r1, #24
 80012cc:	2001      	movs	r0, #1
 80012ce:	f002 fe4f 	bl	8003f70 <aci_hal_set_tx_power_level>
 80012d2:	f002 fcef 	bl	8003cb4 <aci_gatt_init>
 80012d6:	f10d 0322 	add.w	r3, sp, #34	; 0x22
 80012da:	9501      	str	r5, [sp, #4]
 80012dc:	9300      	str	r3, [sp, #0]
 80012de:	2207      	movs	r2, #7
 80012e0:	ab08      	add	r3, sp, #32
 80012e2:	2100      	movs	r1, #0
 80012e4:	2001      	movs	r0, #1
 80012e6:	f002 fbcd 	bl	8003a84 <aci_gap_init>
 80012ea:	4b3c      	ldr	r3, [pc, #240]	; (80013dc <APP_BLE_Init+0x1d0>)
 80012ec:	f8bd 1022 	ldrh.w	r1, [sp, #34]	; 0x22
 80012f0:	9300      	str	r3, [sp, #0]
 80012f2:	2200      	movs	r2, #0
 80012f4:	2305      	movs	r3, #5
 80012f6:	f8bd 0020 	ldrh.w	r0, [sp, #32]
 80012fa:	f002 fda5 	bl	8003e48 <aci_gatt_update_char_value>
 80012fe:	ab07      	add	r3, sp, #28
 8001300:	f8bd 1024 	ldrh.w	r1, [sp, #36]	; 0x24
 8001304:	9300      	str	r3, [sp, #0]
 8001306:	2200      	movs	r2, #0
 8001308:	2302      	movs	r3, #2
 800130a:	f8bd 0020 	ldrh.w	r0, [sp, #32]
 800130e:	f002 fd9b 	bl	8003e48 <aci_gatt_update_char_value>
 8001312:	2202      	movs	r2, #2
 8001314:	2501      	movs	r5, #1
 8001316:	4611      	mov	r1, r2
 8001318:	2000      	movs	r0, #0
 800131a:	f002 fe9d 	bl	8004058 <hci_le_set_default_phy>
 800131e:	4628      	mov	r0, r5
 8001320:	7025      	strb	r5, [r4, #0]
 8001322:	f002 fb27 	bl	8003974 <aci_gap_set_io_capability>
 8001326:	4b2e      	ldr	r3, [pc, #184]	; (80013e0 <APP_BLE_Init+0x1d4>)
 8001328:	60a3      	str	r3, [r4, #8]
 800132a:	2600      	movs	r6, #0
 800132c:	f241 0208 	movw	r2, #4104	; 0x1008
 8001330:	80a2      	strh	r2, [r4, #4]
 8001332:	7065      	strb	r5, [r4, #1]
 8001334:	8065      	strh	r5, [r4, #2]
 8001336:	2210      	movs	r2, #16
 8001338:	e9cd 3603 	strd	r3, r6, [sp, #12]
 800133c:	2308      	movs	r3, #8
 800133e:	e9cd 3200 	strd	r3, r2, [sp]
 8001342:	9602      	str	r6, [sp, #8]
 8001344:	4633      	mov	r3, r6
 8001346:	462a      	mov	r2, r5
 8001348:	4629      	mov	r1, r5
 800134a:	4628      	mov	r0, r5
 800134c:	f002 fb36 	bl	80039bc <aci_gap_set_authentication_requirement>
 8001350:	78a3      	ldrb	r3, [r4, #2]
 8001352:	b10b      	cbz	r3, 8001358 <APP_BLE_Init+0x14c>
 8001354:	f002 fc28 	bl	8003ba8 <aci_gap_configure_whitelist>
 8001358:	f003 faa6 	bl	80048a8 <SVCCTL_Init>
 800135c:	f64f 73ff 	movw	r3, #65535	; 0xffff
 8001360:	4a20      	ldr	r2, [pc, #128]	; (80013e4 <APP_BLE_Init+0x1d8>)
 8001362:	82e3      	strh	r3, [r4, #22]
 8001364:	2100      	movs	r1, #0
 8001366:	2001      	movs	r0, #1
 8001368:	f884 6080 	strb.w	r6, [r4, #128]	; 0x80
 800136c:	f003 fd66 	bl	8004e3c <UTIL_SEQ_RegTask>
 8001370:	f000 f8d8 	bl	8001524 <DISAPP_Init>
 8001374:	f000 f92a 	bl	80015cc <HRSAPP_Init>
 8001378:	2200      	movs	r2, #0
 800137a:	491b      	ldr	r1, [pc, #108]	; (80013e8 <APP_BLE_Init+0x1dc>)
 800137c:	4b1b      	ldr	r3, [pc, #108]	; (80013ec <APP_BLE_Init+0x1e0>)
 800137e:	4610      	mov	r0, r2
 8001380:	f7ff fac0 	bl	8000904 <HW_TS_Create>
 8001384:	4b1a      	ldr	r3, [pc, #104]	; (80013f0 <APP_BLE_Init+0x1e4>)
 8001386:	61a3      	str	r3, [r4, #24]
 8001388:	4b1a      	ldr	r3, [pc, #104]	; (80013f4 <APP_BLE_Init+0x1e8>)
 800138a:	2280      	movs	r2, #128	; 0x80
 800138c:	801a      	strh	r2, [r3, #0]
 800138e:	4b1a      	ldr	r3, [pc, #104]	; (80013f8 <APP_BLE_Init+0x1ec>)
 8001390:	22a0      	movs	r2, #160	; 0xa0
 8001392:	2001      	movs	r0, #1
 8001394:	801a      	strh	r2, [r3, #0]
 8001396:	f7ff fee5 	bl	8001164 <Adv_Request>
 800139a:	b01a      	add	sp, #104	; 0x68
 800139c:	bd70      	pop	{r4, r5, r6, pc}
 800139e:	2000      	movs	r0, #0
 80013a0:	f003 f8dc 	bl	800455c <OTP_Read>
 80013a4:	4c15      	ldr	r4, [pc, #84]	; (80013fc <APP_BLE_Init+0x1f0>)
 80013a6:	2800      	cmp	r0, #0
 80013a8:	bf18      	it	ne
 80013aa:	4604      	movne	r4, r0
 80013ac:	e770      	b.n	8001290 <APP_BLE_Init+0x84>
 80013ae:	bf00      	nop
 80013b0:	08004f03 	.word	0x08004f03
 80013b4:	20030028 	.word	0x20030028
 80013b8:	0800113b 	.word	0x0800113b
 80013bc:	08001151 	.word	0x08001151
 80013c0:	080041dd 	.word	0x080041dd
 80013c4:	1fff7000 	.word	0x1fff7000
 80013c8:	20000544 	.word	0x20000544
 80013cc:	20000008 	.word	0x20000008
 80013d0:	080050ca 	.word	0x080050ca
 80013d4:	200004c0 	.word	0x200004c0
 80013d8:	080050ba 	.word	0x080050ba
 80013dc:	080050b4 	.word	0x080050b4
 80013e0:	0001b207 	.word	0x0001b207
 80013e4:	08001205 	.word	0x08001205
 80013e8:	20000541 	.word	0x20000541
 80013ec:	08001133 	.word	0x08001133
 80013f0:	180d0203 	.word	0x180d0203
 80013f4:	200004be 	.word	0x200004be
 80013f8:	200004bc 	.word	0x200004bc
 80013fc:	080050e0 	.word	0x080050e0

08001400 <SVCCTL_App_Notification>:
 8001400:	b537      	push	{r0, r1, r2, r4, r5, lr}
 8001402:	7843      	ldrb	r3, [r0, #1]
 8001404:	2b3e      	cmp	r3, #62	; 0x3e
 8001406:	4604      	mov	r4, r0
 8001408:	d014      	beq.n	8001434 <SVCCTL_App_Notification+0x34>
 800140a:	2bff      	cmp	r3, #255	; 0xff
 800140c:	d033      	beq.n	8001476 <SVCCTL_App_Notification+0x76>
 800140e:	2b05      	cmp	r3, #5
 8001410:	d10d      	bne.n	800142e <SVCCTL_App_Notification+0x2e>
 8001412:	4b28      	ldr	r3, [pc, #160]	; (80014b4 <SVCCTL_App_Notification+0xb4>)
 8001414:	8881      	ldrh	r1, [r0, #4]
 8001416:	8ada      	ldrh	r2, [r3, #22]
 8001418:	4291      	cmp	r1, r2
 800141a:	bf08      	it	eq
 800141c:	2200      	moveq	r2, #0
 800141e:	f04f 0001 	mov.w	r0, #1
 8001422:	bf04      	itt	eq
 8001424:	82da      	strheq	r2, [r3, #22]
 8001426:	f883 2080 	strbeq.w	r2, [r3, #128]	; 0x80
 800142a:	f7ff fe9b 	bl	8001164 <Adv_Request>
 800142e:	2001      	movs	r0, #1
 8001430:	b003      	add	sp, #12
 8001432:	bd30      	pop	{r4, r5, pc}
 8001434:	78c3      	ldrb	r3, [r0, #3]
 8001436:	2b01      	cmp	r3, #1
 8001438:	d00a      	beq.n	8001450 <SVCCTL_App_Notification+0x50>
 800143a:	2b0c      	cmp	r3, #12
 800143c:	d1f7      	bne.n	800142e <SVCCTL_App_Notification+0x2e>
 800143e:	4b1d      	ldr	r3, [pc, #116]	; (80014b4 <SVCCTL_App_Notification+0xb4>)
 8001440:	f10d 0207 	add.w	r2, sp, #7
 8001444:	8ad8      	ldrh	r0, [r3, #22]
 8001446:	f10d 0106 	add.w	r1, sp, #6
 800144a:	f002 fdd5 	bl	8003ff8 <hci_le_read_phy>
 800144e:	e7ee      	b.n	800142e <SVCCTL_App_Notification+0x2e>
 8001450:	4d18      	ldr	r5, [pc, #96]	; (80014b4 <SVCCTL_App_Notification+0xb4>)
 8001452:	f895 0081 	ldrb.w	r0, [r5, #129]	; 0x81
 8001456:	f7ff fa7f 	bl	8000958 <HW_TS_Stop>
 800145a:	f895 3080 	ldrb.w	r3, [r5, #128]	; 0x80
 800145e:	2b04      	cmp	r3, #4
 8001460:	bf0c      	ite	eq
 8001462:	2306      	moveq	r3, #6
 8001464:	2305      	movne	r3, #5
 8001466:	f885 3080 	strb.w	r3, [r5, #128]	; 0x80
 800146a:	7963      	ldrb	r3, [r4, #5]
 800146c:	79a2      	ldrb	r2, [r4, #6]
 800146e:	ea43 2302 	orr.w	r3, r3, r2, lsl #8
 8001472:	82eb      	strh	r3, [r5, #22]
 8001474:	e7db      	b.n	800142e <SVCCTL_App_Notification+0x2e>
 8001476:	f8b0 3003 	ldrh.w	r3, [r0, #3]
 800147a:	f240 4205 	movw	r2, #1029	; 0x405
 800147e:	4293      	cmp	r3, r2
 8001480:	d00d      	beq.n	800149e <SVCCTL_App_Notification+0x9e>
 8001482:	f240 4209 	movw	r2, #1033	; 0x409
 8001486:	4293      	cmp	r3, r2
 8001488:	d00e      	beq.n	80014a8 <SVCCTL_App_Notification+0xa8>
 800148a:	f240 4202 	movw	r2, #1026	; 0x402
 800148e:	4293      	cmp	r3, r2
 8001490:	d1cd      	bne.n	800142e <SVCCTL_App_Notification+0x2e>
 8001492:	4b08      	ldr	r3, [pc, #32]	; (80014b4 <SVCCTL_App_Notification+0xb4>)
 8001494:	4908      	ldr	r1, [pc, #32]	; (80014b8 <SVCCTL_App_Notification+0xb8>)
 8001496:	8ad8      	ldrh	r0, [r3, #22]
 8001498:	f002 face 	bl	8003a38 <aci_gap_pass_key_resp>
 800149c:	e7c7      	b.n	800142e <SVCCTL_App_Notification+0x2e>
 800149e:	4b05      	ldr	r3, [pc, #20]	; (80014b4 <SVCCTL_App_Notification+0xb4>)
 80014a0:	8ad8      	ldrh	r0, [r3, #22]
 80014a2:	f002 fbbd 	bl	8003c20 <aci_gap_allow_rebond>
 80014a6:	e7c2      	b.n	800142e <SVCCTL_App_Notification+0x2e>
 80014a8:	4b02      	ldr	r3, [pc, #8]	; (80014b4 <SVCCTL_App_Notification+0xb4>)
 80014aa:	2101      	movs	r1, #1
 80014ac:	8ad8      	ldrh	r0, [r3, #22]
 80014ae:	f002 fbdb 	bl	8003c68 <aci_gap_numeric_comparison_value_confirm_yesno>
 80014b2:	e7bc      	b.n	800142e <SVCCTL_App_Notification+0x2e>
 80014b4:	200004c0 	.word	0x200004c0
 80014b8:	0001e240 	.word	0x0001e240

080014bc <APP_BLE_Key_Button1_Action>:
 80014bc:	f002 bb92 	b.w	8003be4 <aci_gap_clear_security_db>

080014c0 <APP_BLE_Key_Button2_Action>:
 80014c0:	4b01      	ldr	r3, [pc, #4]	; (80014c8 <APP_BLE_Key_Button2_Action+0x8>)
 80014c2:	8ad8      	ldrh	r0, [r3, #22]
 80014c4:	f002 bb20 	b.w	8003b08 <aci_gap_slave_security_req>
 80014c8:	200004c0 	.word	0x200004c0

080014cc <APP_BLE_Key_Button3_Action>:
 80014cc:	b51f      	push	{r0, r1, r2, r3, r4, lr}
 80014ce:	4c0f      	ldr	r4, [pc, #60]	; (800150c <APP_BLE_Key_Button3_Action+0x40>)
 80014d0:	f10d 010e 	add.w	r1, sp, #14
 80014d4:	8ae0      	ldrh	r0, [r4, #22]
 80014d6:	f10d 020f 	add.w	r2, sp, #15
 80014da:	f002 fd8d 	bl	8003ff8 <hci_le_read_phy>
 80014de:	4601      	mov	r1, r0
 80014e0:	b968      	cbnz	r0, 80014fe <APP_BLE_Key_Button3_Action+0x32>
 80014e2:	f89d 300e 	ldrb.w	r3, [sp, #14]
 80014e6:	8ae0      	ldrh	r0, [r4, #22]
 80014e8:	2b02      	cmp	r3, #2
 80014ea:	d10a      	bne.n	8001502 <APP_BLE_Key_Button3_Action+0x36>
 80014ec:	f89d 300f 	ldrb.w	r3, [sp, #15]
 80014f0:	2b02      	cmp	r3, #2
 80014f2:	d106      	bne.n	8001502 <APP_BLE_Key_Button3_Action+0x36>
 80014f4:	9100      	str	r1, [sp, #0]
 80014f6:	2301      	movs	r3, #1
 80014f8:	461a      	mov	r2, r3
 80014fa:	f002 fdd5 	bl	80040a8 <hci_le_set_phy>
 80014fe:	b004      	add	sp, #16
 8001500:	bd10      	pop	{r4, pc}
 8001502:	2100      	movs	r1, #0
 8001504:	9100      	str	r1, [sp, #0]
 8001506:	2302      	movs	r3, #2
 8001508:	e7f6      	b.n	80014f8 <APP_BLE_Key_Button3_Action+0x2c>
 800150a:	bf00      	nop
 800150c:	200004c0 	.word	0x200004c0

08001510 <hci_notify_asynch_evt>:
 8001510:	2100      	movs	r1, #0
 8001512:	2004      	movs	r0, #4
 8001514:	f003 bb6e 	b.w	8004bf4 <UTIL_SEQ_SetTask>

08001518 <hci_cmd_resp_release>:
 8001518:	2001      	movs	r0, #1
 800151a:	f003 bb9b 	b.w	8004c54 <UTIL_SEQ_SetEvt>

0800151e <hci_cmd_resp_wait>:
 800151e:	2001      	movs	r0, #1
 8001520:	f003 bc5a 	b.w	8004dd8 <UTIL_SEQ_WaitEvt>

08001524 <DISAPP_Init>:
 8001524:	b507      	push	{r0, r1, r2, lr}
 8001526:	4b06      	ldr	r3, [pc, #24]	; (8001540 <DISAPP_Init+0x1c>)
 8001528:	9300      	str	r3, [sp, #0]
 800152a:	4669      	mov	r1, sp
 800152c:	2304      	movs	r3, #4
 800152e:	f642 2029 	movw	r0, #10793	; 0x2a29
 8001532:	f88d 3004 	strb.w	r3, [sp, #4]
 8001536:	f002 fe11 	bl	800415c <DIS_UpdateChar>
 800153a:	b003      	add	sp, #12
 800153c:	f85d fb04 	ldr.w	pc, [sp], #4
 8001540:	080050b6 	.word	0x080050b6

08001544 <HRSAPP_Measurement>:
 8001544:	4b0c      	ldr	r3, [pc, #48]	; (8001578 <HRSAPP_Measurement+0x34>)
 8001546:	6a9a      	ldr	r2, [r3, #40]	; 0x28
 8001548:	4b0c      	ldr	r3, [pc, #48]	; (800157c <HRSAPP_Measurement+0x38>)
 800154a:	7ad9      	ldrb	r1, [r3, #11]
 800154c:	f002 0207 	and.w	r2, r2, #7
 8001550:	3241      	adds	r2, #65	; 0x41
 8001552:	0709      	lsls	r1, r1, #28
 8001554:	805a      	strh	r2, [r3, #2]
 8001556:	7b1a      	ldrb	r2, [r3, #12]
 8001558:	d508      	bpl.n	800156c <HRSAPP_Measurement+0x28>
 800155a:	b93a      	cbnz	r2, 800156c <HRSAPP_Measurement+0x28>
 800155c:	889a      	ldrh	r2, [r3, #4]
 800155e:	3205      	adds	r2, #5
 8001560:	809a      	strh	r2, [r3, #4]
 8001562:	4907      	ldr	r1, [pc, #28]	; (8001580 <HRSAPP_Measurement+0x3c>)
 8001564:	f642 2037 	movw	r0, #10807	; 0x2a37
 8001568:	f002 bf9c 	b.w	80044a4 <HRS_UpdateChar>
 800156c:	2a01      	cmp	r2, #1
 800156e:	bf04      	itt	eq
 8001570:	2200      	moveq	r2, #0
 8001572:	731a      	strbeq	r2, [r3, #12]
 8001574:	e7f5      	b.n	8001562 <HRSAPP_Measurement+0x1e>
 8001576:	bf00      	nop
 8001578:	40002800 	.word	0x40002800
 800157c:	2000054a 	.word	0x2000054a
 8001580:	2000054c 	.word	0x2000054c

08001584 <HrMeas>:
 8001584:	2100      	movs	r1, #0
 8001586:	2002      	movs	r0, #2
 8001588:	f003 bb34 	b.w	8004bf4 <UTIL_SEQ_SetTask>

0800158c <HRS_Notification>:
 800158c:	b510      	push	{r4, lr}
 800158e:	7803      	ldrb	r3, [r0, #0]
 8001590:	2b01      	cmp	r3, #1
 8001592:	d007      	beq.n	80015a4 <HRS_Notification+0x18>
 8001594:	2b02      	cmp	r3, #2
 8001596:	d010      	beq.n	80015ba <HRS_Notification+0x2e>
 8001598:	b91b      	cbnz	r3, 80015a2 <HRS_Notification+0x16>
 800159a:	4a0b      	ldr	r2, [pc, #44]	; (80015c8 <HRS_Notification+0x3c>)
 800159c:	8093      	strh	r3, [r2, #4]
 800159e:	2301      	movs	r3, #1
 80015a0:	7313      	strb	r3, [r2, #12]
 80015a2:	bd10      	pop	{r4, pc}
 80015a4:	4c08      	ldr	r4, [pc, #32]	; (80015c8 <HRS_Notification+0x3c>)
 80015a6:	7b60      	ldrb	r0, [r4, #13]
 80015a8:	f7ff f9d6 	bl	8000958 <HW_TS_Stop>
 80015ac:	7b60      	ldrb	r0, [r4, #13]
 80015ae:	f640 0101 	movw	r1, #2049	; 0x801
 80015b2:	e8bd 4010 	ldmia.w	sp!, {r4, lr}
 80015b6:	f7ff ba27 	b.w	8000a08 <HW_TS_Start>
 80015ba:	4b03      	ldr	r3, [pc, #12]	; (80015c8 <HRS_Notification+0x3c>)
 80015bc:	e8bd 4010 	ldmia.w	sp!, {r4, lr}
 80015c0:	7b58      	ldrb	r0, [r3, #13]
 80015c2:	f7ff b9c9 	b.w	8000958 <HW_TS_Stop>
 80015c6:	bf00      	nop
 80015c8:	2000054a 	.word	0x2000054a

080015cc <HRSAPP_Init>:
 80015cc:	b570      	push	{r4, r5, r6, lr}
 80015ce:	4c10      	ldr	r4, [pc, #64]	; (8001610 <HRSAPP_Init+0x44>)
 80015d0:	4a10      	ldr	r2, [pc, #64]	; (8001614 <HRSAPP_Init+0x48>)
 80015d2:	2100      	movs	r1, #0
 80015d4:	2002      	movs	r0, #2
 80015d6:	f003 fc31 	bl	8004e3c <UTIL_SEQ_RegTask>
 80015da:	2500      	movs	r5, #0
 80015dc:	2304      	movs	r3, #4
 80015de:	4621      	mov	r1, r4
 80015e0:	f642 2038 	movw	r0, #10808	; 0x2a38
 80015e4:	7023      	strb	r3, [r4, #0]
 80015e6:	7325      	strb	r5, [r4, #12]
 80015e8:	f002 ff5c 	bl	80044a4 <HRS_UpdateChar>
 80015ec:	230a      	movs	r3, #10
 80015ee:	80a3      	strh	r3, [r4, #4]
 80015f0:	f641 7301 	movw	r3, #7937	; 0x1f01
 80015f4:	8163      	strh	r3, [r4, #10]
 80015f6:	f44f 6380 	mov.w	r3, #1024	; 0x400
 80015fa:	80e3      	strh	r3, [r4, #6]
 80015fc:	f104 010d 	add.w	r1, r4, #13
 8001600:	4628      	mov	r0, r5
 8001602:	4b05      	ldr	r3, [pc, #20]	; (8001618 <HRSAPP_Init+0x4c>)
 8001604:	e8bd 4070 	ldmia.w	sp!, {r4, r5, r6, lr}
 8001608:	2201      	movs	r2, #1
 800160a:	f7ff b97b 	b.w	8000904 <HW_TS_Create>
 800160e:	bf00      	nop
 8001610:	2000054a 	.word	0x2000054a
 8001614:	08001545 	.word	0x08001545
 8001618:	08001585 	.word	0x08001585

0800161c <HW_IPCC_Enable>:
 800161c:	f04f 43b0 	mov.w	r3, #1476395008	; 0x58000000
 8001620:	b082      	sub	sp, #8
 8001622:	f8d3 2150 	ldr.w	r2, [r3, #336]	; 0x150
 8001626:	f442 1280 	orr.w	r2, r2, #1048576	; 0x100000
 800162a:	f8c3 2150 	str.w	r2, [r3, #336]	; 0x150
 800162e:	f8d3 3150 	ldr.w	r3, [r3, #336]	; 0x150
 8001632:	f403 1380 	and.w	r3, r3, #1048576	; 0x100000
 8001636:	9301      	str	r3, [sp, #4]
 8001638:	9b01      	ldr	r3, [sp, #4]
 800163a:	4b0a      	ldr	r3, [pc, #40]	; (8001664 <HW_IPCC_Enable+0x48>)
 800163c:	6a1a      	ldr	r2, [r3, #32]
 800163e:	f442 7200 	orr.w	r2, r2, #512	; 0x200
 8001642:	621a      	str	r2, [r3, #32]
 8001644:	f8d3 20d4 	ldr.w	r2, [r3, #212]	; 0xd4
 8001648:	f442 7200 	orr.w	r2, r2, #512	; 0x200
 800164c:	f8c3 20d4 	str.w	r2, [r3, #212]	; 0xd4
 8001650:	bf40      	sev
 8001652:	bf20      	wfe
 8001654:	4a04      	ldr	r2, [pc, #16]	; (8001668 <HW_IPCC_Enable+0x4c>)
 8001656:	68d3      	ldr	r3, [r2, #12]
 8001658:	f443 4300 	orr.w	r3, r3, #32768	; 0x8000
 800165c:	60d3      	str	r3, [r2, #12]
 800165e:	b002      	add	sp, #8
 8001660:	4770      	bx	lr
 8001662:	bf00      	nop
 8001664:	58000800 	.word	0x58000800
 8001668:	58000400 	.word	0x58000400

0800166c <HW_IPCC_Init>:
 800166c:	f04f 43b0 	mov.w	r3, #1476395008	; 0x58000000
 8001670:	b507      	push	{r0, r1, r2, lr}
 8001672:	6d1a      	ldr	r2, [r3, #80]	; 0x50
 8001674:	f442 1280 	orr.w	r2, r2, #1048576	; 0x100000
 8001678:	651a      	str	r2, [r3, #80]	; 0x50
 800167a:	6d1b      	ldr	r3, [r3, #80]	; 0x50
 800167c:	f403 1380 	and.w	r3, r3, #1048576	; 0x100000
 8001680:	9301      	str	r3, [sp, #4]
 8001682:	9b01      	ldr	r3, [sp, #4]
 8001684:	4b08      	ldr	r3, [pc, #32]	; (80016a8 <HW_IPCC_Init+0x3c>)
 8001686:	681a      	ldr	r2, [r3, #0]
 8001688:	f042 0201 	orr.w	r2, r2, #1
 800168c:	601a      	str	r2, [r3, #0]
 800168e:	681a      	ldr	r2, [r3, #0]
 8001690:	f442 3280 	orr.w	r2, r2, #65536	; 0x10000
 8001694:	601a      	str	r2, [r3, #0]
 8001696:	202c      	movs	r0, #44	; 0x2c
 8001698:	f000 fa24 	bl	8001ae4 <HAL_NVIC_EnableIRQ>
 800169c:	202d      	movs	r0, #45	; 0x2d
 800169e:	b003      	add	sp, #12
 80016a0:	f85d eb04 	ldr.w	lr, [sp], #4
 80016a4:	f000 ba1e 	b.w	8001ae4 <HAL_NVIC_EnableIRQ>
 80016a8:	58000c00 	.word	0x58000c00

080016ac <HW_IPCC_BLE_Init>:
 80016ac:	4a02      	ldr	r2, [pc, #8]	; (80016b8 <HW_IPCC_BLE_Init+0xc>)
 80016ae:	6853      	ldr	r3, [r2, #4]
 80016b0:	f023 0301 	bic.w	r3, r3, #1
 80016b4:	6053      	str	r3, [r2, #4]
 80016b6:	4770      	bx	lr
 80016b8:	58000c00 	.word	0x58000c00

080016bc <HW_IPCC_BLE_SendCmd>:
 80016bc:	4b02      	ldr	r3, [pc, #8]	; (80016c8 <HW_IPCC_BLE_SendCmd+0xc>)
 80016be:	f44f 3280 	mov.w	r2, #65536	; 0x10000
 80016c2:	609a      	str	r2, [r3, #8]
 80016c4:	4770      	bx	lr
 80016c6:	bf00      	nop
 80016c8:	58000c00 	.word	0x58000c00

080016cc <HW_IPCC_SYS_Init>:
 80016cc:	4a02      	ldr	r2, [pc, #8]	; (80016d8 <HW_IPCC_SYS_Init+0xc>)
 80016ce:	6853      	ldr	r3, [r2, #4]
 80016d0:	f023 0302 	bic.w	r3, r3, #2
 80016d4:	6053      	str	r3, [r2, #4]
 80016d6:	4770      	bx	lr
 80016d8:	58000c00 	.word	0x58000c00

080016dc <HW_IPCC_SYS_SendCmd>:
 80016dc:	4b04      	ldr	r3, [pc, #16]	; (80016f0 <HW_IPCC_SYS_SendCmd+0x14>)
 80016de:	f44f 3200 	mov.w	r2, #131072	; 0x20000
 80016e2:	609a      	str	r2, [r3, #8]
 80016e4:	685a      	ldr	r2, [r3, #4]
 80016e6:	f422 3200 	bic.w	r2, r2, #131072	; 0x20000
 80016ea:	605a      	str	r2, [r3, #4]
 80016ec:	4770      	bx	lr
 80016ee:	bf00      	nop
 80016f0:	58000c00 	.word	0x58000c00

080016f4 <HW_IPCC_Tx_Handler>:
 80016f4:	b510      	push	{r4, lr}
 80016f6:	4c16      	ldr	r4, [pc, #88]	; (8001750 <HW_IPCC_Tx_Handler+0x5c>)
 80016f8:	68e3      	ldr	r3, [r4, #12]
 80016fa:	0799      	lsls	r1, r3, #30
 80016fc:	d409      	bmi.n	8001712 <HW_IPCC_Tx_Handler+0x1e>
 80016fe:	6863      	ldr	r3, [r4, #4]
 8001700:	039a      	lsls	r2, r3, #14
 8001702:	d406      	bmi.n	8001712 <HW_IPCC_Tx_Handler+0x1e>
 8001704:	6863      	ldr	r3, [r4, #4]
 8001706:	f443 3300 	orr.w	r3, r3, #131072	; 0x20000
 800170a:	6063      	str	r3, [r4, #4]
 800170c:	f003 f9be 	bl	8004a8c <HW_IPCC_SYS_CmdEvtNot>
 8001710:	bd10      	pop	{r4, pc}
 8001712:	68e3      	ldr	r3, [r4, #12]
 8001714:	071b      	lsls	r3, r3, #28
 8001716:	d40d      	bmi.n	8001734 <HW_IPCC_Tx_Handler+0x40>
 8001718:	6863      	ldr	r3, [r4, #4]
 800171a:	0318      	lsls	r0, r3, #12
 800171c:	d40a      	bmi.n	8001734 <HW_IPCC_Tx_Handler+0x40>
 800171e:	6863      	ldr	r3, [r4, #4]
 8001720:	f443 2300 	orr.w	r3, r3, #524288	; 0x80000
 8001724:	6063      	str	r3, [r4, #4]
 8001726:	4b0b      	ldr	r3, [pc, #44]	; (8001754 <HW_IPCC_Tx_Handler+0x60>)
 8001728:	681b      	ldr	r3, [r3, #0]
 800172a:	4798      	blx	r3
 800172c:	f44f 2300 	mov.w	r3, #524288	; 0x80000
 8001730:	60a3      	str	r3, [r4, #8]
 8001732:	e7ed      	b.n	8001710 <HW_IPCC_Tx_Handler+0x1c>
 8001734:	4b06      	ldr	r3, [pc, #24]	; (8001750 <HW_IPCC_Tx_Handler+0x5c>)
 8001736:	68da      	ldr	r2, [r3, #12]
 8001738:	0691      	lsls	r1, r2, #26
 800173a:	d4e9      	bmi.n	8001710 <HW_IPCC_Tx_Handler+0x1c>
 800173c:	685a      	ldr	r2, [r3, #4]
 800173e:	0292      	lsls	r2, r2, #10
 8001740:	d4e6      	bmi.n	8001710 <HW_IPCC_Tx_Handler+0x1c>
 8001742:	685a      	ldr	r2, [r3, #4]
 8001744:	f442 1200 	orr.w	r2, r2, #2097152	; 0x200000
 8001748:	605a      	str	r2, [r3, #4]
 800174a:	f003 f96d 	bl	8004a28 <HW_IPCC_BLE_AclDataAckNot>
 800174e:	e7df      	b.n	8001710 <HW_IPCC_Tx_Handler+0x1c>
 8001750:	58000c00 	.word	0x58000c00
 8001754:	20000558 	.word	0x20000558

08001758 <HW_IPCC_MM_SendFreeBuf>:
 8001758:	b510      	push	{r4, lr}
 800175a:	4c08      	ldr	r4, [pc, #32]	; (800177c <HW_IPCC_MM_SendFreeBuf+0x24>)
 800175c:	68e3      	ldr	r3, [r4, #12]
 800175e:	071b      	lsls	r3, r3, #28
 8001760:	d506      	bpl.n	8001770 <HW_IPCC_MM_SendFreeBuf+0x18>
 8001762:	4b07      	ldr	r3, [pc, #28]	; (8001780 <HW_IPCC_MM_SendFreeBuf+0x28>)
 8001764:	6018      	str	r0, [r3, #0]
 8001766:	6863      	ldr	r3, [r4, #4]
 8001768:	f423 2300 	bic.w	r3, r3, #524288	; 0x80000
 800176c:	6063      	str	r3, [r4, #4]
 800176e:	bd10      	pop	{r4, pc}
 8001770:	4780      	blx	r0
 8001772:	f44f 2300 	mov.w	r3, #524288	; 0x80000
 8001776:	60a3      	str	r3, [r4, #8]
 8001778:	e7f9      	b.n	800176e <HW_IPCC_MM_SendFreeBuf+0x16>
 800177a:	bf00      	nop
 800177c:	58000c00 	.word	0x58000c00
 8001780:	20000558 	.word	0x20000558

08001784 <HW_IPCC_TRACES_Init>:
 8001784:	4a02      	ldr	r2, [pc, #8]	; (8001790 <HW_IPCC_TRACES_Init+0xc>)
 8001786:	6853      	ldr	r3, [r2, #4]
 8001788:	f023 0308 	bic.w	r3, r3, #8
 800178c:	6053      	str	r3, [r2, #4]
 800178e:	4770      	bx	lr
 8001790:	58000c00 	.word	0x58000c00

08001794 <HW_IPCC_Rx_Handler>:
 8001794:	b510      	push	{r4, lr}
 8001796:	4c10      	ldr	r4, [pc, #64]	; (80017d8 <HW_IPCC_Rx_Handler+0x44>)
 8001798:	69e3      	ldr	r3, [r4, #28]
 800179a:	079a      	lsls	r2, r3, #30
 800179c:	d507      	bpl.n	80017ae <HW_IPCC_Rx_Handler+0x1a>
 800179e:	6863      	ldr	r3, [r4, #4]
 80017a0:	079b      	lsls	r3, r3, #30
 80017a2:	d404      	bmi.n	80017ae <HW_IPCC_Rx_Handler+0x1a>
 80017a4:	f003 f97e 	bl	8004aa4 <HW_IPCC_SYS_EvtNot>
 80017a8:	2302      	movs	r3, #2
 80017aa:	60a3      	str	r3, [r4, #8]
 80017ac:	bd10      	pop	{r4, pc}
 80017ae:	69e3      	ldr	r3, [r4, #28]
 80017b0:	07d8      	lsls	r0, r3, #31
 80017b2:	d506      	bpl.n	80017c2 <HW_IPCC_Rx_Handler+0x2e>
 80017b4:	6863      	ldr	r3, [r4, #4]
 80017b6:	07d9      	lsls	r1, r3, #31
 80017b8:	d403      	bmi.n	80017c2 <HW_IPCC_Rx_Handler+0x2e>
 80017ba:	f003 f91f 	bl	80049fc <HW_IPCC_BLE_RxEvtNot>
 80017be:	2301      	movs	r3, #1
 80017c0:	e7f3      	b.n	80017aa <HW_IPCC_Rx_Handler+0x16>
 80017c2:	4c05      	ldr	r4, [pc, #20]	; (80017d8 <HW_IPCC_Rx_Handler+0x44>)
 80017c4:	69e3      	ldr	r3, [r4, #28]
 80017c6:	071a      	lsls	r2, r3, #28
 80017c8:	d5f0      	bpl.n	80017ac <HW_IPCC_Rx_Handler+0x18>
 80017ca:	6863      	ldr	r3, [r4, #4]
 80017cc:	071b      	lsls	r3, r3, #28
 80017ce:	d4ed      	bmi.n	80017ac <HW_IPCC_Rx_Handler+0x18>
 80017d0:	f003 f9be 	bl	8004b50 <HW_IPCC_TRACES_EvtNot>
 80017d4:	2308      	movs	r3, #8
 80017d6:	e7e8      	b.n	80017aa <HW_IPCC_Rx_Handler+0x16>
 80017d8:	58000c00 	.word	0x58000c00

080017dc <CopyDataInit>:
 80017dc:	58d4      	ldr	r4, [r2, r3]
 80017de:	50c4      	str	r4, [r0, r3]
 80017e0:	3304      	adds	r3, #4

080017e2 <LoopCopyDataInit>:
 80017e2:	18c4      	adds	r4, r0, r3
 80017e4:	428c      	cmp	r4, r1
 80017e6:	d3f9      	bcc.n	80017dc <CopyDataInit>
 80017e8:	4770      	bx	lr

080017ea <FillZerobss>:
 80017ea:	6003      	str	r3, [r0, #0]
 80017ec:	3004      	adds	r0, #4

080017ee <LoopFillZerobss>:
 80017ee:	4288      	cmp	r0, r1
 80017f0:	d3fb      	bcc.n	80017ea <FillZerobss>
 80017f2:	4770      	bx	lr

080017f4 <Reset_Handler>:
 80017f4:	480c      	ldr	r0, [pc, #48]	; (8001828 <LoopForever+0x4>)
 80017f6:	4685      	mov	sp, r0
 80017f8:	f000 f87c 	bl	80018f4 <SystemInit>
 80017fc:	480b      	ldr	r0, [pc, #44]	; (800182c <LoopForever+0x8>)
 80017fe:	490c      	ldr	r1, [pc, #48]	; (8001830 <LoopForever+0xc>)
 8001800:	4a0c      	ldr	r2, [pc, #48]	; (8001834 <LoopForever+0x10>)
 8001802:	2300      	movs	r3, #0
 8001804:	f7ff ffed 	bl	80017e2 <LoopCopyDataInit>
 8001808:	480b      	ldr	r0, [pc, #44]	; (8001838 <LoopForever+0x14>)
 800180a:	490c      	ldr	r1, [pc, #48]	; (800183c <LoopForever+0x18>)
 800180c:	2300      	movs	r3, #0
 800180e:	f7ff ffee 	bl	80017ee <LoopFillZerobss>
 8001812:	480b      	ldr	r0, [pc, #44]	; (8001840 <LoopForever+0x1c>)
 8001814:	490b      	ldr	r1, [pc, #44]	; (8001844 <LoopForever+0x20>)
 8001816:	2300      	movs	r3, #0
 8001818:	f7ff ffe9 	bl	80017ee <LoopFillZerobss>
 800181c:	f003 fb1e 	bl	8004e5c <__libc_init_array>
 8001820:	f7ff faa2 	bl	8000d68 <main>

08001824 <LoopForever>:
 8001824:	e7fe      	b.n	8001824 <LoopForever>
 8001826:	0000      	.short	0x0000
 8001828:	20030000 	.word	0x20030000
 800182c:	20000008 	.word	0x20000008
 8001830:	20000038 	.word	0x20000038
 8001834:	08005188 	.word	0x08005188
 8001838:	2000008c 	.word	0x2000008c
 800183c:	20000670 	.word	0x20000670
 8001840:	200301e4 	.word	0x200301e4
 8001844:	20030a67 	.word	0x20030a67

08001848 <ADC1_IRQHandler>:
 8001848:	e7fe      	b.n	8001848 <ADC1_IRQHandler>

0800184a <LL_AHB2_GRP1_EnableClock>:
 800184a:	f04f 43b0 	mov.w	r3, #1476395008	; 0x58000000
 800184e:	b082      	sub	sp, #8
 8001850:	6cda      	ldr	r2, [r3, #76]	; 0x4c
 8001852:	4302      	orrs	r2, r0
 8001854:	64da      	str	r2, [r3, #76]	; 0x4c
 8001856:	6cdb      	ldr	r3, [r3, #76]	; 0x4c
 8001858:	4018      	ands	r0, r3
 800185a:	9001      	str	r0, [sp, #4]
 800185c:	9b01      	ldr	r3, [sp, #4]
 800185e:	b002      	add	sp, #8
 8001860:	4770      	bx	lr
	...

08001864 <BSP_PB_Init>:
 8001864:	b530      	push	{r4, r5, lr}
 8001866:	b089      	sub	sp, #36	; 0x24
 8001868:	4604      	mov	r4, r0
 800186a:	460d      	mov	r5, r1
 800186c:	2214      	movs	r2, #20
 800186e:	2100      	movs	r1, #0
 8001870:	a803      	add	r0, sp, #12
 8001872:	f003 fb25 	bl	8004ec0 <memset>
 8001876:	b9bc      	cbnz	r4, 80018a8 <BSP_PB_Init+0x44>
 8001878:	2004      	movs	r0, #4
 800187a:	f7ff ffe6 	bl	800184a <LL_AHB2_GRP1_EnableClock>
 800187e:	b9c5      	cbnz	r5, 80018b2 <BSP_PB_Init+0x4e>
 8001880:	4b19      	ldr	r3, [pc, #100]	; (80018e8 <BSP_PB_Init+0x84>)
 8001882:	f833 3014 	ldrh.w	r3, [r3, r4, lsl #1]
 8001886:	e9cd 3503 	strd	r3, r5, [sp, #12]
 800188a:	2501      	movs	r5, #1
 800188c:	2302      	movs	r3, #2
 800188e:	e9cd 5305 	strd	r5, r3, [sp, #20]
 8001892:	4b16      	ldr	r3, [pc, #88]	; (80018ec <BSP_PB_Init+0x88>)
 8001894:	a903      	add	r1, sp, #12
 8001896:	f853 0024 	ldr.w	r0, [r3, r4, lsl #2]
 800189a:	f000 fa3d 	bl	8001d18 <HAL_GPIO_Init>
 800189e:	4628      	mov	r0, r5
 80018a0:	f7fe fe60 	bl	8000564 <HAL_Delay>
 80018a4:	b009      	add	sp, #36	; 0x24
 80018a6:	bd30      	pop	{r4, r5, pc}
 80018a8:	1e63      	subs	r3, r4, #1
 80018aa:	2b01      	cmp	r3, #1
 80018ac:	d8e7      	bhi.n	800187e <BSP_PB_Init+0x1a>
 80018ae:	2008      	movs	r0, #8
 80018b0:	e7e3      	b.n	800187a <BSP_PB_Init+0x16>
 80018b2:	2d01      	cmp	r5, #1
 80018b4:	d1f6      	bne.n	80018a4 <BSP_PB_Init+0x40>
 80018b6:	4b0c      	ldr	r3, [pc, #48]	; (80018e8 <BSP_PB_Init+0x84>)
 80018b8:	9505      	str	r5, [sp, #20]
 80018ba:	f833 3014 	ldrh.w	r3, [r3, r4, lsl #1]
 80018be:	9303      	str	r3, [sp, #12]
 80018c0:	f44f 1304 	mov.w	r3, #2162688	; 0x210000
 80018c4:	9304      	str	r3, [sp, #16]
 80018c6:	4b09      	ldr	r3, [pc, #36]	; (80018ec <BSP_PB_Init+0x88>)
 80018c8:	a903      	add	r1, sp, #12
 80018ca:	f853 0024 	ldr.w	r0, [r3, r4, lsl #2]
 80018ce:	f000 fa23 	bl	8001d18 <HAL_GPIO_Init>
 80018d2:	4b07      	ldr	r3, [pc, #28]	; (80018f0 <BSP_PB_Init+0x8c>)
 80018d4:	2200      	movs	r2, #0
 80018d6:	5718      	ldrsb	r0, [r3, r4]
 80018d8:	9001      	str	r0, [sp, #4]
 80018da:	210f      	movs	r1, #15
 80018dc:	f000 f8d0 	bl	8001a80 <HAL_NVIC_SetPriority>
 80018e0:	9801      	ldr	r0, [sp, #4]
 80018e2:	f000 f8ff 	bl	8001ae4 <HAL_NVIC_EnableIRQ>
 80018e6:	e7dd      	b.n	80018a4 <BSP_PB_Init+0x40>
 80018e8:	080050ea 	.word	0x080050ea
 80018ec:	20000018 	.word	0x20000018
 80018f0:	080050e6 	.word	0x080050e6

080018f4 <SystemInit>:
 80018f4:	4b17      	ldr	r3, [pc, #92]	; (8001954 <SystemInit+0x60>)
 80018f6:	2100      	movs	r1, #0
 80018f8:	6099      	str	r1, [r3, #8]
 80018fa:	f8d3 2088 	ldr.w	r2, [r3, #136]	; 0x88
 80018fe:	f442 0270 	orr.w	r2, r2, #15728640	; 0xf00000
 8001902:	f8c3 2088 	str.w	r2, [r3, #136]	; 0x88
 8001906:	f04f 43b0 	mov.w	r3, #1476395008	; 0x58000000
 800190a:	f46f 7c82 	mvn.w	ip, #260	; 0x104
 800190e:	681a      	ldr	r2, [r3, #0]
 8001910:	f042 0201 	orr.w	r2, r2, #1
 8001914:	601a      	str	r2, [r3, #0]
 8001916:	f44f 22e0 	mov.w	r2, #458752	; 0x70000
 800191a:	609a      	str	r2, [r3, #8]
 800191c:	6818      	ldr	r0, [r3, #0]
 800191e:	f1a2 62a2 	sub.w	r2, r2, #84934656	; 0x5100000
 8001922:	4462      	add	r2, ip
 8001924:	4002      	ands	r2, r0
 8001926:	601a      	str	r2, [r3, #0]
 8001928:	f8d3 2094 	ldr.w	r2, [r3, #148]	; 0x94
 800192c:	f022 0205 	bic.w	r2, r2, #5
 8001930:	f8c3 2094 	str.w	r2, [r3, #148]	; 0x94
 8001934:	f8d3 2098 	ldr.w	r2, [r3, #152]	; 0x98
 8001938:	f022 0201 	bic.w	r2, r2, #1
 800193c:	f8c3 2098 	str.w	r2, [r3, #152]	; 0x98
 8001940:	4a05      	ldr	r2, [pc, #20]	; (8001958 <SystemInit+0x64>)
 8001942:	60da      	str	r2, [r3, #12]
 8001944:	611a      	str	r2, [r3, #16]
 8001946:	681a      	ldr	r2, [r3, #0]
 8001948:	f422 2280 	bic.w	r2, r2, #262144	; 0x40000
 800194c:	601a      	str	r2, [r3, #0]
 800194e:	6199      	str	r1, [r3, #24]
 8001950:	4770      	bx	lr
 8001952:	bf00      	nop
 8001954:	e000ed00 	.word	0xe000ed00
 8001958:	22041000 	.word	0x22041000

0800195c <HAL_InitTick>:
 800195c:	b538      	push	{r3, r4, r5, lr}
 800195e:	4c10      	ldr	r4, [pc, #64]	; (80019a0 <HAL_InitTick+0x44>)
 8001960:	7823      	ldrb	r3, [r4, #0]
 8001962:	4605      	mov	r5, r0
 8001964:	b90b      	cbnz	r3, 800196a <HAL_InitTick+0xe>
 8001966:	2001      	movs	r0, #1
 8001968:	bd38      	pop	{r3, r4, r5, pc}
 800196a:	f000 fbd3 	bl	8002114 <HAL_RCC_GetHCLKFreq>
 800196e:	7822      	ldrb	r2, [r4, #0]
 8001970:	f44f 737a 	mov.w	r3, #1000	; 0x3e8
 8001974:	fbb3 f3f2 	udiv	r3, r3, r2
 8001978:	fbb0 f0f3 	udiv	r0, r0, r3
 800197c:	f000 f8d4 	bl	8001b28 <HAL_SYSTICK_Config>
 8001980:	4604      	mov	r4, r0
 8001982:	2800      	cmp	r0, #0
 8001984:	d1ef      	bne.n	8001966 <HAL_InitTick+0xa>
 8001986:	2d0f      	cmp	r5, #15
 8001988:	d8ed      	bhi.n	8001966 <HAL_InitTick+0xa>
 800198a:	4602      	mov	r2, r0
 800198c:	4629      	mov	r1, r5
 800198e:	f04f 30ff 	mov.w	r0, #4294967295
 8001992:	f000 f875 	bl	8001a80 <HAL_NVIC_SetPriority>
 8001996:	4b03      	ldr	r3, [pc, #12]	; (80019a4 <HAL_InitTick+0x48>)
 8001998:	4620      	mov	r0, r4
 800199a:	601d      	str	r5, [r3, #0]
 800199c:	e7e4      	b.n	8001968 <HAL_InitTick+0xc>
 800199e:	bf00      	nop
 80019a0:	20000028 	.word	0x20000028
 80019a4:	2000002c 	.word	0x2000002c

080019a8 <HAL_Init>:
 80019a8:	4a09      	ldr	r2, [pc, #36]	; (80019d0 <HAL_Init+0x28>)
 80019aa:	6813      	ldr	r3, [r2, #0]
 80019ac:	f443 7380 	orr.w	r3, r3, #256	; 0x100
 80019b0:	b510      	push	{r4, lr}
 80019b2:	2003      	movs	r0, #3
 80019b4:	6013      	str	r3, [r2, #0]
 80019b6:	f000 f851 	bl	8001a5c <HAL_NVIC_SetPriorityGrouping>
 80019ba:	2000      	movs	r0, #0
 80019bc:	f7ff ffce 	bl	800195c <HAL_InitTick>
 80019c0:	4604      	mov	r4, r0
 80019c2:	b918      	cbnz	r0, 80019cc <HAL_Init+0x24>
 80019c4:	f7ff fafe 	bl	8000fc4 <HAL_MspInit>
 80019c8:	4620      	mov	r0, r4
 80019ca:	bd10      	pop	{r4, pc}
 80019cc:	2401      	movs	r4, #1
 80019ce:	e7fb      	b.n	80019c8 <HAL_Init+0x20>
 80019d0:	58004000 	.word	0x58004000

080019d4 <HAL_IncTick>:
 80019d4:	4a03      	ldr	r2, [pc, #12]	; (80019e4 <HAL_IncTick+0x10>)
 80019d6:	4b04      	ldr	r3, [pc, #16]	; (80019e8 <HAL_IncTick+0x14>)
 80019d8:	6811      	ldr	r1, [r2, #0]
 80019da:	781b      	ldrb	r3, [r3, #0]
 80019dc:	440b      	add	r3, r1
 80019de:	6013      	str	r3, [r2, #0]
 80019e0:	4770      	bx	lr
 80019e2:	bf00      	nop
 80019e4:	2000055c 	.word	0x2000055c
 80019e8:	20000028 	.word	0x20000028

080019ec <HAL_GetTick>:
 80019ec:	4b01      	ldr	r3, [pc, #4]	; (80019f4 <HAL_GetTick+0x8>)
 80019ee:	6818      	ldr	r0, [r3, #0]
 80019f0:	4770      	bx	lr
 80019f2:	bf00      	nop
 80019f4:	2000055c 	.word	0x2000055c

080019f8 <HAL_GetTickPrio>:
 80019f8:	4b01      	ldr	r3, [pc, #4]	; (8001a00 <HAL_GetTickPrio+0x8>)
 80019fa:	6818      	ldr	r0, [r3, #0]
 80019fc:	4770      	bx	lr
 80019fe:	bf00      	nop
 8001a00:	2000002c 	.word	0x2000002c

08001a04 <HAL_GetTickFreq>:
 8001a04:	4b01      	ldr	r3, [pc, #4]	; (8001a0c <HAL_GetTickFreq+0x8>)
 8001a06:	7818      	ldrb	r0, [r3, #0]
 8001a08:	4770      	bx	lr
 8001a0a:	bf00      	nop
 8001a0c:	20000028 	.word	0x20000028

08001a10 <HAL_SuspendTick>:
 8001a10:	f04f 22e0 	mov.w	r2, #3758153728	; 0xe000e000
 8001a14:	6913      	ldr	r3, [r2, #16]
 8001a16:	f023 0302 	bic.w	r3, r3, #2
 8001a1a:	6113      	str	r3, [r2, #16]
 8001a1c:	4770      	bx	lr

08001a1e <HAL_ResumeTick>:
 8001a1e:	f04f 22e0 	mov.w	r2, #3758153728	; 0xe000e000
 8001a22:	6913      	ldr	r3, [r2, #16]
 8001a24:	f043 0302 	orr.w	r3, r3, #2
 8001a28:	6113      	str	r3, [r2, #16]
 8001a2a:	4770      	bx	lr

08001a2c <HAL_DBGMCU_DisableDBGSleepMode>:
 8001a2c:	4a02      	ldr	r2, [pc, #8]	; (8001a38 <HAL_DBGMCU_DisableDBGSleepMode+0xc>)
 8001a2e:	6853      	ldr	r3, [r2, #4]
 8001a30:	f023 0301 	bic.w	r3, r3, #1
 8001a34:	6053      	str	r3, [r2, #4]
 8001a36:	4770      	bx	lr
 8001a38:	e0042000 	.word	0xe0042000

08001a3c <HAL_DBGMCU_DisableDBGStopMode>:
 8001a3c:	4a02      	ldr	r2, [pc, #8]	; (8001a48 <HAL_DBGMCU_DisableDBGStopMode+0xc>)
 8001a3e:	6853      	ldr	r3, [r2, #4]
 8001a40:	f023 0302 	bic.w	r3, r3, #2
 8001a44:	6053      	str	r3, [r2, #4]
 8001a46:	4770      	bx	lr
 8001a48:	e0042000 	.word	0xe0042000

08001a4c <HAL_DBGMCU_DisableDBGStandbyMode>:
 8001a4c:	4a02      	ldr	r2, [pc, #8]	; (8001a58 <HAL_DBGMCU_DisableDBGStandbyMode+0xc>)
 8001a4e:	6853      	ldr	r3, [r2, #4]
 8001a50:	f023 0304 	bic.w	r3, r3, #4
 8001a54:	6053      	str	r3, [r2, #4]
 8001a56:	4770      	bx	lr
 8001a58:	e0042000 	.word	0xe0042000

08001a5c <HAL_NVIC_SetPriorityGrouping>:
 8001a5c:	4907      	ldr	r1, [pc, #28]	; (8001a7c <HAL_NVIC_SetPriorityGrouping+0x20>)
 8001a5e:	68ca      	ldr	r2, [r1, #12]
 8001a60:	f422 62e0 	bic.w	r2, r2, #1792	; 0x700
 8001a64:	0203      	lsls	r3, r0, #8
 8001a66:	0412      	lsls	r2, r2, #16
 8001a68:	f403 63e0 	and.w	r3, r3, #1792	; 0x700
 8001a6c:	0c12      	lsrs	r2, r2, #16
 8001a6e:	4313      	orrs	r3, r2
 8001a70:	f043 63bf 	orr.w	r3, r3, #100139008	; 0x5f80000
 8001a74:	f443 3300 	orr.w	r3, r3, #131072	; 0x20000
 8001a78:	60cb      	str	r3, [r1, #12]
 8001a7a:	4770      	bx	lr
 8001a7c:	e000ed00 	.word	0xe000ed00

08001a80 <HAL_NVIC_SetPriority>:
 8001a80:	4b16      	ldr	r3, [pc, #88]	; (8001adc <HAL_NVIC_SetPriority+0x5c>)
 8001a82:	b530      	push	{r4, r5, lr}
 8001a84:	68dc      	ldr	r4, [r3, #12]
 8001a86:	f3c4 2402 	ubfx	r4, r4, #8, #3
 8001a8a:	f1c4 0507 	rsb	r5, r4, #7
 8001a8e:	1d23      	adds	r3, r4, #4
 8001a90:	2d04      	cmp	r5, #4
 8001a92:	bf28      	it	cs
 8001a94:	2504      	movcs	r5, #4
 8001a96:	2b06      	cmp	r3, #6
 8001a98:	f04f 33ff 	mov.w	r3, #4294967295
 8001a9c:	bf8c      	ite	hi
 8001a9e:	3c03      	subhi	r4, #3
 8001aa0:	2400      	movls	r4, #0
 8001aa2:	fa03 f505 	lsl.w	r5, r3, r5
 8001aa6:	ea21 0105 	bic.w	r1, r1, r5
 8001aaa:	40a3      	lsls	r3, r4
 8001aac:	ea22 0203 	bic.w	r2, r2, r3
 8001ab0:	40a1      	lsls	r1, r4
 8001ab2:	2800      	cmp	r0, #0
 8001ab4:	ea41 0302 	orr.w	r3, r1, r2
 8001ab8:	bfac      	ite	ge
 8001aba:	f100 4060 	addge.w	r0, r0, #3758096384	; 0xe0000000
 8001abe:	4a08      	ldrlt	r2, [pc, #32]	; (8001ae0 <HAL_NVIC_SetPriority+0x60>)
 8001ac0:	ea4f 1303 	mov.w	r3, r3, lsl #4
 8001ac4:	bfb8      	it	lt
 8001ac6:	f000 000f 	andlt.w	r0, r0, #15
 8001aca:	b2db      	uxtb	r3, r3
 8001acc:	bfaa      	itet	ge
 8001ace:	f500 4061 	addge.w	r0, r0, #57600	; 0xe100
 8001ad2:	5413      	strblt	r3, [r2, r0]
 8001ad4:	f880 3300 	strbge.w	r3, [r0, #768]	; 0x300
 8001ad8:	bd30      	pop	{r4, r5, pc}
 8001ada:	bf00      	nop
 8001adc:	e000ed00 	.word	0xe000ed00
 8001ae0:	e000ed14 	.word	0xe000ed14

08001ae4 <HAL_NVIC_EnableIRQ>:
 8001ae4:	2800      	cmp	r0, #0
 8001ae6:	db08      	blt.n	8001afa <HAL_NVIC_EnableIRQ+0x16>
 8001ae8:	2301      	movs	r3, #1
 8001aea:	0942      	lsrs	r2, r0, #5
 8001aec:	f000 001f 	and.w	r0, r0, #31
 8001af0:	fa03 f000 	lsl.w	r0, r3, r0
 8001af4:	4b01      	ldr	r3, [pc, #4]	; (8001afc <HAL_NVIC_EnableIRQ+0x18>)
 8001af6:	f843 0022 	str.w	r0, [r3, r2, lsl #2]
 8001afa:	4770      	bx	lr
 8001afc:	e000e100 	.word	0xe000e100

08001b00 <HAL_NVIC_DisableIRQ>:
 8001b00:	2800      	cmp	r0, #0
 8001b02:	db0d      	blt.n	8001b20 <HAL_NVIC_DisableIRQ+0x20>
 8001b04:	0943      	lsrs	r3, r0, #5
 8001b06:	2201      	movs	r2, #1
 8001b08:	f000 001f 	and.w	r0, r0, #31
 8001b0c:	fa02 f000 	lsl.w	r0, r2, r0
 8001b10:	3320      	adds	r3, #32
 8001b12:	4a04      	ldr	r2, [pc, #16]	; (8001b24 <HAL_NVIC_DisableIRQ+0x24>)
 8001b14:	f842 0023 	str.w	r0, [r2, r3, lsl #2]
 8001b18:	f3bf 8f4f 	dsb	sy
 8001b1c:	f3bf 8f6f 	isb	sy
 8001b20:	4770      	bx	lr
 8001b22:	bf00      	nop
 8001b24:	e000e100 	.word	0xe000e100

08001b28 <HAL_SYSTICK_Config>:
 8001b28:	3801      	subs	r0, #1
 8001b2a:	f1b0 7f80 	cmp.w	r0, #16777216	; 0x1000000
 8001b2e:	d20b      	bcs.n	8001b48 <HAL_SYSTICK_Config+0x20>
 8001b30:	f04f 23e0 	mov.w	r3, #3758153728	; 0xe000e000
 8001b34:	4a05      	ldr	r2, [pc, #20]	; (8001b4c <HAL_SYSTICK_Config+0x24>)
 8001b36:	6158      	str	r0, [r3, #20]
 8001b38:	21f0      	movs	r1, #240	; 0xf0
 8001b3a:	f882 1023 	strb.w	r1, [r2, #35]	; 0x23
 8001b3e:	2000      	movs	r0, #0
 8001b40:	2207      	movs	r2, #7
 8001b42:	6198      	str	r0, [r3, #24]
 8001b44:	611a      	str	r2, [r3, #16]
 8001b46:	4770      	bx	lr
 8001b48:	2001      	movs	r0, #1
 8001b4a:	4770      	bx	lr
 8001b4c:	e000ed00 	.word	0xe000ed00

08001b50 <HAL_NVIC_SetPendingIRQ>:
 8001b50:	2800      	cmp	r0, #0
 8001b52:	db09      	blt.n	8001b68 <HAL_NVIC_SetPendingIRQ+0x18>
 8001b54:	0943      	lsrs	r3, r0, #5
 8001b56:	2201      	movs	r2, #1
 8001b58:	f000 001f 	and.w	r0, r0, #31
 8001b5c:	fa02 f000 	lsl.w	r0, r2, r0
 8001b60:	3340      	adds	r3, #64	; 0x40
 8001b62:	4a02      	ldr	r2, [pc, #8]	; (8001b6c <HAL_NVIC_SetPendingIRQ+0x1c>)
 8001b64:	f842 0023 	str.w	r0, [r2, r3, lsl #2]
 8001b68:	4770      	bx	lr
 8001b6a:	bf00      	nop
 8001b6c:	e000e100 	.word	0xe000e100

08001b70 <HAL_NVIC_ClearPendingIRQ>:
 8001b70:	2800      	cmp	r0, #0
 8001b72:	db09      	blt.n	8001b88 <HAL_NVIC_ClearPendingIRQ+0x18>
 8001b74:	0943      	lsrs	r3, r0, #5
 8001b76:	2201      	movs	r2, #1
 8001b78:	f000 001f 	and.w	r0, r0, #31
 8001b7c:	fa02 f000 	lsl.w	r0, r2, r0
 8001b80:	3360      	adds	r3, #96	; 0x60
 8001b82:	4a02      	ldr	r2, [pc, #8]	; (8001b8c <HAL_NVIC_ClearPendingIRQ+0x1c>)
 8001b84:	f842 0023 	str.w	r0, [r2, r3, lsl #2]
 8001b88:	4770      	bx	lr
 8001b8a:	bf00      	nop
 8001b8c:	e000e100 	.word	0xe000e100

08001b90 <HAL_DMA_Abort>:
 8001b90:	b140      	cbz	r0, 8001ba4 <HAL_DMA_Abort+0x14>
 8001b92:	f890 3025 	ldrb.w	r3, [r0, #37]	; 0x25
 8001b96:	2b02      	cmp	r3, #2
 8001b98:	d006      	beq.n	8001ba8 <HAL_DMA_Abort+0x18>
 8001b9a:	2304      	movs	r3, #4
 8001b9c:	63c3      	str	r3, [r0, #60]	; 0x3c
 8001b9e:	2300      	movs	r3, #0
 8001ba0:	f880 3024 	strb.w	r3, [r0, #36]	; 0x24
 8001ba4:	2001      	movs	r0, #1
 8001ba6:	4770      	bx	lr
 8001ba8:	6803      	ldr	r3, [r0, #0]
 8001baa:	6c81      	ldr	r1, [r0, #72]	; 0x48
 8001bac:	681a      	ldr	r2, [r3, #0]
 8001bae:	f022 020e 	bic.w	r2, r2, #14
 8001bb2:	601a      	str	r2, [r3, #0]
 8001bb4:	680a      	ldr	r2, [r1, #0]
 8001bb6:	f422 7280 	bic.w	r2, r2, #256	; 0x100
 8001bba:	600a      	str	r2, [r1, #0]
 8001bbc:	681a      	ldr	r2, [r3, #0]
 8001bbe:	f022 0201 	bic.w	r2, r2, #1
 8001bc2:	601a      	str	r2, [r3, #0]
 8001bc4:	e9d0 1310 	ldrd	r1, r3, [r0, #64]	; 0x40
 8001bc8:	f003 021c 	and.w	r2, r3, #28
 8001bcc:	2301      	movs	r3, #1
 8001bce:	4093      	lsls	r3, r2
 8001bd0:	604b      	str	r3, [r1, #4]
 8001bd2:	e9d0 3213 	ldrd	r3, r2, [r0, #76]	; 0x4c
 8001bd6:	605a      	str	r2, [r3, #4]
 8001bd8:	6d43      	ldr	r3, [r0, #84]	; 0x54
 8001bda:	b133      	cbz	r3, 8001bea <HAL_DMA_Abort+0x5a>
 8001bdc:	681a      	ldr	r2, [r3, #0]
 8001bde:	f422 7280 	bic.w	r2, r2, #256	; 0x100
 8001be2:	601a      	str	r2, [r3, #0]
 8001be4:	e9d0 3216 	ldrd	r3, r2, [r0, #88]	; 0x58
 8001be8:	605a      	str	r2, [r3, #4]
 8001bea:	2301      	movs	r3, #1
 8001bec:	f880 3025 	strb.w	r3, [r0, #37]	; 0x25
 8001bf0:	2300      	movs	r3, #0
 8001bf2:	f880 3024 	strb.w	r3, [r0, #36]	; 0x24
 8001bf6:	4618      	mov	r0, r3
 8001bf8:	4770      	bx	lr

08001bfa <HAL_DMA_Abort_IT>:
 8001bfa:	b510      	push	{r4, lr}
 8001bfc:	f890 3025 	ldrb.w	r3, [r0, #37]	; 0x25
 8001c00:	2b02      	cmp	r3, #2
 8001c02:	d003      	beq.n	8001c0c <HAL_DMA_Abort_IT+0x12>
 8001c04:	2304      	movs	r3, #4
 8001c06:	63c3      	str	r3, [r0, #60]	; 0x3c
 8001c08:	2001      	movs	r0, #1
 8001c0a:	bd10      	pop	{r4, pc}
 8001c0c:	6803      	ldr	r3, [r0, #0]
 8001c0e:	681a      	ldr	r2, [r3, #0]
 8001c10:	f022 020e 	bic.w	r2, r2, #14
 8001c14:	601a      	str	r2, [r3, #0]
 8001c16:	681a      	ldr	r2, [r3, #0]
 8001c18:	f022 0201 	bic.w	r2, r2, #1
 8001c1c:	601a      	str	r2, [r3, #0]
 8001c1e:	6c82      	ldr	r2, [r0, #72]	; 0x48
 8001c20:	6813      	ldr	r3, [r2, #0]
 8001c22:	f423 7380 	bic.w	r3, r3, #256	; 0x100
 8001c26:	6013      	str	r3, [r2, #0]
 8001c28:	e9d0 1310 	ldrd	r1, r3, [r0, #64]	; 0x40
 8001c2c:	f003 021c 	and.w	r2, r3, #28
 8001c30:	2301      	movs	r3, #1
 8001c32:	4093      	lsls	r3, r2
 8001c34:	604b      	str	r3, [r1, #4]
 8001c36:	e9d0 3213 	ldrd	r3, r2, [r0, #76]	; 0x4c
 8001c3a:	605a      	str	r2, [r3, #4]
 8001c3c:	6d43      	ldr	r3, [r0, #84]	; 0x54
 8001c3e:	b133      	cbz	r3, 8001c4e <HAL_DMA_Abort_IT+0x54>
 8001c40:	681a      	ldr	r2, [r3, #0]
 8001c42:	f422 7280 	bic.w	r2, r2, #256	; 0x100
 8001c46:	601a      	str	r2, [r3, #0]
 8001c48:	e9d0 3216 	ldrd	r3, r2, [r0, #88]	; 0x58
 8001c4c:	605a      	str	r2, [r3, #4]
 8001c4e:	2301      	movs	r3, #1
 8001c50:	f880 3025 	strb.w	r3, [r0, #37]	; 0x25
 8001c54:	6b83      	ldr	r3, [r0, #56]	; 0x38
 8001c56:	2400      	movs	r4, #0
 8001c58:	f880 4024 	strb.w	r4, [r0, #36]	; 0x24
 8001c5c:	b113      	cbz	r3, 8001c64 <HAL_DMA_Abort_IT+0x6a>
 8001c5e:	4798      	blx	r3
 8001c60:	4620      	mov	r0, r4
 8001c62:	e7d2      	b.n	8001c0a <HAL_DMA_Abort_IT+0x10>
 8001c64:	4618      	mov	r0, r3
 8001c66:	e7d0      	b.n	8001c0a <HAL_DMA_Abort_IT+0x10>

08001c68 <HAL_DMA_IRQHandler>:
 8001c68:	6c01      	ldr	r1, [r0, #64]	; 0x40
 8001c6a:	6c42      	ldr	r2, [r0, #68]	; 0x44
 8001c6c:	6803      	ldr	r3, [r0, #0]
 8001c6e:	b470      	push	{r4, r5, r6}
 8001c70:	f002 021c 	and.w	r2, r2, #28
 8001c74:	680e      	ldr	r6, [r1, #0]
 8001c76:	681d      	ldr	r5, [r3, #0]
 8001c78:	2404      	movs	r4, #4
 8001c7a:	4094      	lsls	r4, r2
 8001c7c:	4234      	tst	r4, r6
 8001c7e:	d00e      	beq.n	8001c9e <HAL_DMA_IRQHandler+0x36>
 8001c80:	f015 0f04 	tst.w	r5, #4
 8001c84:	d00b      	beq.n	8001c9e <HAL_DMA_IRQHandler+0x36>
 8001c86:	681a      	ldr	r2, [r3, #0]
 8001c88:	0692      	lsls	r2, r2, #26
 8001c8a:	bf5e      	ittt	pl
 8001c8c:	681a      	ldrpl	r2, [r3, #0]
 8001c8e:	f022 0204 	bicpl.w	r2, r2, #4
 8001c92:	601a      	strpl	r2, [r3, #0]
 8001c94:	6b03      	ldr	r3, [r0, #48]	; 0x30
 8001c96:	604c      	str	r4, [r1, #4]
 8001c98:	b373      	cbz	r3, 8001cf8 <HAL_DMA_IRQHandler+0x90>
 8001c9a:	bc70      	pop	{r4, r5, r6}
 8001c9c:	4718      	bx	r3
 8001c9e:	2402      	movs	r4, #2
 8001ca0:	4094      	lsls	r4, r2
 8001ca2:	4234      	tst	r4, r6
 8001ca4:	d012      	beq.n	8001ccc <HAL_DMA_IRQHandler+0x64>
 8001ca6:	f015 0f02 	tst.w	r5, #2
 8001caa:	d00f      	beq.n	8001ccc <HAL_DMA_IRQHandler+0x64>
 8001cac:	681a      	ldr	r2, [r3, #0]
 8001cae:	0695      	lsls	r5, r2, #26
 8001cb0:	d406      	bmi.n	8001cc0 <HAL_DMA_IRQHandler+0x58>
 8001cb2:	681a      	ldr	r2, [r3, #0]
 8001cb4:	f022 020a 	bic.w	r2, r2, #10
 8001cb8:	601a      	str	r2, [r3, #0]
 8001cba:	2301      	movs	r3, #1
 8001cbc:	f880 3025 	strb.w	r3, [r0, #37]	; 0x25
 8001cc0:	2300      	movs	r3, #0
 8001cc2:	604c      	str	r4, [r1, #4]
 8001cc4:	f880 3024 	strb.w	r3, [r0, #36]	; 0x24
 8001cc8:	6ac3      	ldr	r3, [r0, #44]	; 0x2c
 8001cca:	e7e5      	b.n	8001c98 <HAL_DMA_IRQHandler+0x30>
 8001ccc:	2408      	movs	r4, #8
 8001cce:	4094      	lsls	r4, r2
 8001cd0:	4234      	tst	r4, r6
 8001cd2:	d011      	beq.n	8001cf8 <HAL_DMA_IRQHandler+0x90>
 8001cd4:	072c      	lsls	r4, r5, #28
 8001cd6:	d50f      	bpl.n	8001cf8 <HAL_DMA_IRQHandler+0x90>
 8001cd8:	681c      	ldr	r4, [r3, #0]
 8001cda:	f024 040e 	bic.w	r4, r4, #14
 8001cde:	601c      	str	r4, [r3, #0]
 8001ce0:	2301      	movs	r3, #1
 8001ce2:	fa03 f202 	lsl.w	r2, r3, r2
 8001ce6:	604a      	str	r2, [r1, #4]
 8001ce8:	63c3      	str	r3, [r0, #60]	; 0x3c
 8001cea:	f880 3025 	strb.w	r3, [r0, #37]	; 0x25
 8001cee:	2300      	movs	r3, #0
 8001cf0:	f880 3024 	strb.w	r3, [r0, #36]	; 0x24
 8001cf4:	6b43      	ldr	r3, [r0, #52]	; 0x34
 8001cf6:	e7cf      	b.n	8001c98 <HAL_DMA_IRQHandler+0x30>
 8001cf8:	bc70      	pop	{r4, r5, r6}
 8001cfa:	4770      	bx	lr

08001cfc <HAL_EXTI_GenerateSWI>:
 8001cfc:	6803      	ldr	r3, [r0, #0]
 8001cfe:	f003 011f 	and.w	r1, r3, #31
 8001d02:	f3c3 4300 	ubfx	r3, r3, #16, #1
 8001d06:	015b      	lsls	r3, r3, #5
 8001d08:	2201      	movs	r2, #1
 8001d0a:	f103 43b0 	add.w	r3, r3, #1476395008	; 0x58000000
 8001d0e:	408a      	lsls	r2, r1
 8001d10:	f8c3 2808 	str.w	r2, [r3, #2056]	; 0x808
 8001d14:	4770      	bx	lr
	...

08001d18 <HAL_GPIO_Init>:
 8001d18:	e92d 4ff0 	stmdb	sp!, {r4, r5, r6, r7, r8, r9, sl, fp, lr}
 8001d1c:	4c57      	ldr	r4, [pc, #348]	; (8001e7c <HAL_GPIO_Init+0x164>)
 8001d1e:	2300      	movs	r3, #0
 8001d20:	f04f 090f 	mov.w	r9, #15
 8001d24:	680a      	ldr	r2, [r1, #0]
 8001d26:	fa32 f503 	lsrs.w	r5, r2, r3
 8001d2a:	d101      	bne.n	8001d30 <HAL_GPIO_Init+0x18>
 8001d2c:	e8bd 8ff0 	ldmia.w	sp!, {r4, r5, r6, r7, r8, r9, sl, fp, pc}
 8001d30:	2501      	movs	r5, #1
 8001d32:	fa05 f803 	lsl.w	r8, r5, r3
 8001d36:	ea18 0202 	ands.w	r2, r8, r2
 8001d3a:	f000 8094 	beq.w	8001e66 <HAL_GPIO_Init+0x14e>
 8001d3e:	684e      	ldr	r6, [r1, #4]
 8001d40:	2703      	movs	r7, #3
 8001d42:	f006 0503 	and.w	r5, r6, #3
 8001d46:	ea4f 0e43 	mov.w	lr, r3, lsl #1
 8001d4a:	fa07 fc0e 	lsl.w	ip, r7, lr
 8001d4e:	1e6f      	subs	r7, r5, #1
 8001d50:	2f01      	cmp	r7, #1
 8001d52:	ea6f 0c0c 	mvn.w	ip, ip
 8001d56:	d832      	bhi.n	8001dbe <HAL_GPIO_Init+0xa6>
 8001d58:	6887      	ldr	r7, [r0, #8]
 8001d5a:	ea07 0a0c 	and.w	sl, r7, ip
 8001d5e:	68cf      	ldr	r7, [r1, #12]
 8001d60:	fa07 f70e 	lsl.w	r7, r7, lr
 8001d64:	ea47 070a 	orr.w	r7, r7, sl
 8001d68:	6087      	str	r7, [r0, #8]
 8001d6a:	6847      	ldr	r7, [r0, #4]
 8001d6c:	ea27 0808 	bic.w	r8, r7, r8
 8001d70:	f3c6 1700 	ubfx	r7, r6, #4, #1
 8001d74:	409f      	lsls	r7, r3
 8001d76:	ea47 0708 	orr.w	r7, r7, r8
 8001d7a:	6047      	str	r7, [r0, #4]
 8001d7c:	68c7      	ldr	r7, [r0, #12]
 8001d7e:	ea07 080c 	and.w	r8, r7, ip
 8001d82:	688f      	ldr	r7, [r1, #8]
 8001d84:	fa07 f70e 	lsl.w	r7, r7, lr
 8001d88:	ea47 0708 	orr.w	r7, r7, r8
 8001d8c:	2d02      	cmp	r5, #2
 8001d8e:	60c7      	str	r7, [r0, #12]
 8001d90:	d117      	bne.n	8001dc2 <HAL_GPIO_Init+0xaa>
 8001d92:	ea4f 08d3 	mov.w	r8, r3, lsr #3
 8001d96:	eb00 0888 	add.w	r8, r0, r8, lsl #2
 8001d9a:	f003 0a07 	and.w	sl, r3, #7
 8001d9e:	f8d8 7020 	ldr.w	r7, [r8, #32]
 8001da2:	ea4f 0a8a 	mov.w	sl, sl, lsl #2
 8001da6:	fa09 fb0a 	lsl.w	fp, r9, sl
 8001daa:	ea27 0b0b 	bic.w	fp, r7, fp
 8001dae:	690f      	ldr	r7, [r1, #16]
 8001db0:	fa07 f70a 	lsl.w	r7, r7, sl
 8001db4:	ea47 070b 	orr.w	r7, r7, fp
 8001db8:	f8c8 7020 	str.w	r7, [r8, #32]
 8001dbc:	e001      	b.n	8001dc2 <HAL_GPIO_Init+0xaa>
 8001dbe:	2d03      	cmp	r5, #3
 8001dc0:	d1dc      	bne.n	8001d7c <HAL_GPIO_Init+0x64>
 8001dc2:	6807      	ldr	r7, [r0, #0]
 8001dc4:	fa05 f50e 	lsl.w	r5, r5, lr
 8001dc8:	ea07 070c 	and.w	r7, r7, ip
 8001dcc:	432f      	orrs	r7, r5
 8001dce:	f416 3f40 	tst.w	r6, #196608	; 0x30000
 8001dd2:	6007      	str	r7, [r0, #0]
 8001dd4:	d047      	beq.n	8001e66 <HAL_GPIO_Init+0x14e>
 8001dd6:	f023 0703 	bic.w	r7, r3, #3
 8001dda:	f107 4780 	add.w	r7, r7, #1073741824	; 0x40000000
 8001dde:	f507 3780 	add.w	r7, r7, #65536	; 0x10000
 8001de2:	f003 0c03 	and.w	ip, r3, #3
 8001de6:	68bd      	ldr	r5, [r7, #8]
 8001de8:	ea4f 0c8c 	mov.w	ip, ip, lsl #2
 8001dec:	fa09 fe0c 	lsl.w	lr, r9, ip
 8001df0:	f1b0 4f90 	cmp.w	r0, #1207959552	; 0x48000000
 8001df4:	ea25 0e0e 	bic.w	lr, r5, lr
 8001df8:	d037      	beq.n	8001e6a <HAL_GPIO_Init+0x152>
 8001dfa:	4d21      	ldr	r5, [pc, #132]	; (8001e80 <HAL_GPIO_Init+0x168>)
 8001dfc:	42a8      	cmp	r0, r5
 8001dfe:	d036      	beq.n	8001e6e <HAL_GPIO_Init+0x156>
 8001e00:	f505 6580 	add.w	r5, r5, #1024	; 0x400
 8001e04:	42a8      	cmp	r0, r5
 8001e06:	d034      	beq.n	8001e72 <HAL_GPIO_Init+0x15a>
 8001e08:	f505 6580 	add.w	r5, r5, #1024	; 0x400
 8001e0c:	42a8      	cmp	r0, r5
 8001e0e:	d032      	beq.n	8001e76 <HAL_GPIO_Init+0x15e>
 8001e10:	f505 6580 	add.w	r5, r5, #1024	; 0x400
 8001e14:	42a8      	cmp	r0, r5
 8001e16:	bf0c      	ite	eq
 8001e18:	2504      	moveq	r5, #4
 8001e1a:	2507      	movne	r5, #7
 8001e1c:	fa05 f50c 	lsl.w	r5, r5, ip
 8001e20:	ea45 050e 	orr.w	r5, r5, lr
 8001e24:	60bd      	str	r5, [r7, #8]
 8001e26:	6825      	ldr	r5, [r4, #0]
 8001e28:	43d7      	mvns	r7, r2
 8001e2a:	f416 1f80 	tst.w	r6, #1048576	; 0x100000
 8001e2e:	bf0c      	ite	eq
 8001e30:	403d      	andeq	r5, r7
 8001e32:	4315      	orrne	r5, r2
 8001e34:	6025      	str	r5, [r4, #0]
 8001e36:	6865      	ldr	r5, [r4, #4]
 8001e38:	f416 1f00 	tst.w	r6, #2097152	; 0x200000
 8001e3c:	bf0c      	ite	eq
 8001e3e:	403d      	andeq	r5, r7
 8001e40:	4315      	orrne	r5, r2
 8001e42:	6065      	str	r5, [r4, #4]
 8001e44:	f8d4 5080 	ldr.w	r5, [r4, #128]	; 0x80
 8001e48:	f416 3f80 	tst.w	r6, #65536	; 0x10000
 8001e4c:	bf0c      	ite	eq
 8001e4e:	403d      	andeq	r5, r7
 8001e50:	4315      	orrne	r5, r2
 8001e52:	f8c4 5080 	str.w	r5, [r4, #128]	; 0x80
 8001e56:	f8d4 5084 	ldr.w	r5, [r4, #132]	; 0x84
 8001e5a:	03b6      	lsls	r6, r6, #14
 8001e5c:	bf54      	ite	pl
 8001e5e:	403d      	andpl	r5, r7
 8001e60:	4315      	orrmi	r5, r2
 8001e62:	f8c4 5084 	str.w	r5, [r4, #132]	; 0x84
 8001e66:	3301      	adds	r3, #1
 8001e68:	e75c      	b.n	8001d24 <HAL_GPIO_Init+0xc>
 8001e6a:	2500      	movs	r5, #0
 8001e6c:	e7d6      	b.n	8001e1c <HAL_GPIO_Init+0x104>
 8001e6e:	2501      	movs	r5, #1
 8001e70:	e7d4      	b.n	8001e1c <HAL_GPIO_Init+0x104>
 8001e72:	2502      	movs	r5, #2
 8001e74:	e7d2      	b.n	8001e1c <HAL_GPIO_Init+0x104>
 8001e76:	2503      	movs	r5, #3
 8001e78:	e7d0      	b.n	8001e1c <HAL_GPIO_Init+0x104>
 8001e7a:	bf00      	nop
 8001e7c:	58000800 	.word	0x58000800
 8001e80:	48000400 	.word	0x48000400

08001e84 <HAL_GPIO_WritePin>:
 8001e84:	b10a      	cbz	r2, 8001e8a <HAL_GPIO_WritePin+0x6>
 8001e86:	6181      	str	r1, [r0, #24]
 8001e88:	4770      	bx	lr
 8001e8a:	6281      	str	r1, [r0, #40]	; 0x28
 8001e8c:	4770      	bx	lr
	...

08001e90 <HAL_GPIO_EXTI_IRQHandler>:
 8001e90:	4a04      	ldr	r2, [pc, #16]	; (8001ea4 <HAL_GPIO_EXTI_IRQHandler+0x14>)
 8001e92:	68d1      	ldr	r1, [r2, #12]
 8001e94:	4201      	tst	r1, r0
 8001e96:	b508      	push	{r3, lr}
 8001e98:	d002      	beq.n	8001ea0 <HAL_GPIO_EXTI_IRQHandler+0x10>
 8001e9a:	60d0      	str	r0, [r2, #12]
 8001e9c:	f7fe fb90 	bl	80005c0 <HAL_GPIO_EXTI_Callback>
 8001ea0:	bd08      	pop	{r3, pc}
 8001ea2:	bf00      	nop
 8001ea4:	58000800 	.word	0x58000800

08001ea8 <HAL_HSEM_FreeCallback>:
 8001ea8:	4770      	bx	lr
	...

08001eac <HAL_HSEM_IRQHandler>:
 8001eac:	b508      	push	{r3, lr}
 8001eae:	4b05      	ldr	r3, [pc, #20]	; (8001ec4 <HAL_HSEM_IRQHandler+0x18>)
 8001eb0:	68d8      	ldr	r0, [r3, #12]
 8001eb2:	681a      	ldr	r2, [r3, #0]
 8001eb4:	ea22 0200 	bic.w	r2, r2, r0
 8001eb8:	601a      	str	r2, [r3, #0]
 8001eba:	6058      	str	r0, [r3, #4]
 8001ebc:	f7ff fff4 	bl	8001ea8 <HAL_HSEM_FreeCallback>
 8001ec0:	bd08      	pop	{r3, pc}
 8001ec2:	bf00      	nop
 8001ec4:	58001500 	.word	0x58001500

08001ec8 <HAL_IPCC_TxCallback>:
 8001ec8:	4770      	bx	lr

08001eca <HAL_IPCC_RxCallback>:
 8001eca:	4770      	bx	lr

08001ecc <IPCC_SetDefaultCallbacks>:
 8001ecc:	4904      	ldr	r1, [pc, #16]	; (8001ee0 <IPCC_SetDefaultCallbacks+0x14>)
 8001ece:	4a05      	ldr	r2, [pc, #20]	; (8001ee4 <IPCC_SetDefaultCallbacks+0x18>)
 8001ed0:	1d03      	adds	r3, r0, #4
 8001ed2:	301c      	adds	r0, #28
 8001ed4:	f843 1b04 	str.w	r1, [r3], #4
 8001ed8:	4283      	cmp	r3, r0
 8001eda:	615a      	str	r2, [r3, #20]
 8001edc:	d1fa      	bne.n	8001ed4 <IPCC_SetDefaultCallbacks+0x8>
 8001ede:	4770      	bx	lr
 8001ee0:	08001ecb 	.word	0x08001ecb
 8001ee4:	08001ec9 	.word	0x08001ec9

08001ee8 <HAL_IPCC_Init>:
 8001ee8:	b538      	push	{r3, r4, r5, lr}
 8001eea:	4604      	mov	r4, r0
 8001eec:	b1c8      	cbz	r0, 8001f22 <HAL_IPCC_Init+0x3a>
 8001eee:	f890 3038 	ldrb.w	r3, [r0, #56]	; 0x38
 8001ef2:	b90b      	cbnz	r3, 8001ef8 <HAL_IPCC_Init+0x10>
 8001ef4:	f7ff f876 	bl	8000fe4 <HAL_IPCC_MspInit>
 8001ef8:	4b0b      	ldr	r3, [pc, #44]	; (8001f28 <HAL_IPCC_Init+0x40>)
 8001efa:	2500      	movs	r5, #0
 8001efc:	f04f 123f 	mov.w	r2, #4128831	; 0x3f003f
 8001f00:	601d      	str	r5, [r3, #0]
 8001f02:	605a      	str	r2, [r3, #4]
 8001f04:	223f      	movs	r2, #63	; 0x3f
 8001f06:	609a      	str	r2, [r3, #8]
 8001f08:	681a      	ldr	r2, [r3, #0]
 8001f0a:	f042 1201 	orr.w	r2, r2, #65537	; 0x10001
 8001f0e:	601a      	str	r2, [r3, #0]
 8001f10:	4620      	mov	r0, r4
 8001f12:	f7ff ffdb 	bl	8001ecc <IPCC_SetDefaultCallbacks>
 8001f16:	2301      	movs	r3, #1
 8001f18:	6365      	str	r5, [r4, #52]	; 0x34
 8001f1a:	f884 3038 	strb.w	r3, [r4, #56]	; 0x38
 8001f1e:	4628      	mov	r0, r5
 8001f20:	bd38      	pop	{r3, r4, r5, pc}
 8001f22:	2001      	movs	r0, #1
 8001f24:	e7fc      	b.n	8001f20 <HAL_IPCC_Init+0x38>
 8001f26:	bf00      	nop
 8001f28:	58000c00 	.word	0x58000c00

08001f2c <HAL_PWR_EnableBkUpAccess>:
 8001f2c:	4a02      	ldr	r2, [pc, #8]	; (8001f38 <HAL_PWR_EnableBkUpAccess+0xc>)
 8001f2e:	6813      	ldr	r3, [r2, #0]
 8001f30:	f443 7380 	orr.w	r3, r3, #256	; 0x100
 8001f34:	6013      	str	r3, [r2, #0]
 8001f36:	4770      	bx	lr
 8001f38:	58000400 	.word	0x58000400

08001f3c <HAL_PWREx_GetVoltageRange>:
 8001f3c:	4b02      	ldr	r3, [pc, #8]	; (8001f48 <HAL_PWREx_GetVoltageRange+0xc>)
 8001f3e:	6818      	ldr	r0, [r3, #0]
 8001f40:	f400 60c0 	and.w	r0, r0, #1536	; 0x600
 8001f44:	4770      	bx	lr
 8001f46:	bf00      	nop
 8001f48:	58000400 	.word	0x58000400

08001f4c <LL_RCC_LSI1_IsReady>:
 8001f4c:	f04f 43b0 	mov.w	r3, #1476395008	; 0x58000000
 8001f50:	f8d3 0094 	ldr.w	r0, [r3, #148]	; 0x94
 8001f54:	f3c0 0040 	ubfx	r0, r0, #1, #1
 8001f58:	4770      	bx	lr

08001f5a <LL_RCC_MSI_IsReady>:
 8001f5a:	f04f 43b0 	mov.w	r3, #1476395008	; 0x58000000
 8001f5e:	6818      	ldr	r0, [r3, #0]
 8001f60:	f3c0 0040 	ubfx	r0, r0, #1, #1
 8001f64:	4770      	bx	lr

08001f66 <LL_RCC_MSI_SetRange>:
 8001f66:	f04f 42b0 	mov.w	r2, #1476395008	; 0x58000000
 8001f6a:	6813      	ldr	r3, [r2, #0]
 8001f6c:	f023 03f0 	bic.w	r3, r3, #240	; 0xf0
 8001f70:	4318      	orrs	r0, r3
 8001f72:	6010      	str	r0, [r2, #0]
 8001f74:	4770      	bx	lr

08001f76 <LL_RCC_MSI_SetCalibTrimming>:
 8001f76:	f04f 42b0 	mov.w	r2, #1476395008	; 0x58000000
 8001f7a:	6853      	ldr	r3, [r2, #4]
 8001f7c:	f423 437f 	bic.w	r3, r3, #65280	; 0xff00
 8001f80:	ea43 2000 	orr.w	r0, r3, r0, lsl #8
 8001f84:	6050      	str	r0, [r2, #4]
 8001f86:	4770      	bx	lr

08001f88 <RCC_SetFlashLatencyFromMSIRange>:
 8001f88:	28b0      	cmp	r0, #176	; 0xb0
 8001f8a:	4b33      	ldr	r3, [pc, #204]	; (8002058 <RCC_SetFlashLatencyFromMSIRange+0xd0>)
 8001f8c:	4a33      	ldr	r2, [pc, #204]	; (800205c <RCC_SetFlashLatencyFromMSIRange+0xd4>)
 8001f8e:	bf98      	it	ls
 8001f90:	0900      	lsrls	r0, r0, #4
 8001f92:	b5f0      	push	{r4, r5, r6, r7, lr}
 8001f94:	bf8c      	ite	hi
 8001f96:	6add      	ldrhi	r5, [r3, #44]	; 0x2c
 8001f98:	f853 5020 	ldrls.w	r5, [r3, r0, lsl #2]
 8001f9c:	4c30      	ldr	r4, [pc, #192]	; (8002060 <RCC_SetFlashLatencyFromMSIRange+0xd8>)
 8001f9e:	f04f 43b0 	mov.w	r3, #1476395008	; 0x58000000
 8001fa2:	b089      	sub	sp, #36	; 0x24
 8001fa4:	f8d3 3108 	ldr.w	r3, [r3, #264]	; 0x108
 8001fa8:	f003 030f 	and.w	r3, r3, #15
 8001fac:	466e      	mov	r6, sp
 8001fae:	f852 3023 	ldr.w	r3, [r2, r3, lsl #2]
 8001fb2:	fbb5 f5f3 	udiv	r5, r5, r3
 8001fb6:	f7ff ffc1 	bl	8001f3c <HAL_PWREx_GetVoltageRange>
 8001fba:	4607      	mov	r7, r0
 8001fbc:	e894 000f 	ldmia.w	r4, {r0, r1, r2, r3}
 8001fc0:	3410      	adds	r4, #16
 8001fc2:	e886 000f 	stmia.w	r6, {r0, r1, r2, r3}
 8001fc6:	e894 000f 	ldmia.w	r4, {r0, r1, r2, r3}
 8001fca:	f5b7 7f00 	cmp.w	r7, #512	; 0x200
 8001fce:	ac08      	add	r4, sp, #32
 8001fd0:	e904 000f 	stmdb	r4, {r0, r1, r2, r3}
 8001fd4:	d020      	beq.n	8002018 <RCC_SetFlashLatencyFromMSIRange+0x90>
 8001fd6:	4b23      	ldr	r3, [pc, #140]	; (8002064 <RCC_SetFlashLatencyFromMSIRange+0xdc>)
 8001fd8:	429d      	cmp	r5, r3
 8001fda:	d32f      	bcc.n	800203c <RCC_SetFlashLatencyFromMSIRange+0xb4>
 8001fdc:	f503 03b7 	add.w	r3, r3, #5996544	; 0x5b8000
 8001fe0:	f603 537f 	addw	r3, r3, #3455	; 0xd7f
 8001fe4:	429d      	cmp	r5, r3
 8001fe6:	d92b      	bls.n	8002040 <RCC_SetFlashLatencyFromMSIRange+0xb8>
 8001fe8:	f503 1374 	add.w	r3, r3, #3997696	; 0x3d0000
 8001fec:	f503 6310 	add.w	r3, r3, #2304	; 0x900
 8001ff0:	429d      	cmp	r5, r3
 8001ff2:	d927      	bls.n	8002044 <RCC_SetFlashLatencyFromMSIRange+0xbc>
 8001ff4:	2400      	movs	r4, #0
 8001ff6:	4d1c      	ldr	r5, [pc, #112]	; (8002068 <RCC_SetFlashLatencyFromMSIRange+0xe0>)
 8001ff8:	682b      	ldr	r3, [r5, #0]
 8001ffa:	f023 0307 	bic.w	r3, r3, #7
 8001ffe:	4323      	orrs	r3, r4
 8002000:	602b      	str	r3, [r5, #0]
 8002002:	f7ff fcf3 	bl	80019ec <HAL_GetTick>
 8002006:	4606      	mov	r6, r0
 8002008:	682b      	ldr	r3, [r5, #0]
 800200a:	f003 0307 	and.w	r3, r3, #7
 800200e:	429c      	cmp	r4, r3
 8002010:	d11a      	bne.n	8002048 <RCC_SetFlashLatencyFromMSIRange+0xc0>
 8002012:	2000      	movs	r0, #0
 8002014:	b009      	add	sp, #36	; 0x24
 8002016:	bdf0      	pop	{r4, r5, r6, r7, pc}
 8002018:	4b14      	ldr	r3, [pc, #80]	; (800206c <RCC_SetFlashLatencyFromMSIRange+0xe4>)
 800201a:	fbb5 f5f3 	udiv	r5, r5, r3
 800201e:	2300      	movs	r3, #0
 8002020:	f856 2b04 	ldr.w	r2, [r6], #4
 8002024:	4295      	cmp	r5, r2
 8002026:	d805      	bhi.n	8002034 <RCC_SetFlashLatencyFromMSIRange+0xac>
 8002028:	aa08      	add	r2, sp, #32
 800202a:	eb02 0383 	add.w	r3, r2, r3, lsl #2
 800202e:	f853 4c10 	ldr.w	r4, [r3, #-16]
 8002032:	e7e0      	b.n	8001ff6 <RCC_SetFlashLatencyFromMSIRange+0x6e>
 8002034:	3301      	adds	r3, #1
 8002036:	2b04      	cmp	r3, #4
 8002038:	d1f2      	bne.n	8002020 <RCC_SetFlashLatencyFromMSIRange+0x98>
 800203a:	e7db      	b.n	8001ff4 <RCC_SetFlashLatencyFromMSIRange+0x6c>
 800203c:	2300      	movs	r3, #0
 800203e:	e7f3      	b.n	8002028 <RCC_SetFlashLatencyFromMSIRange+0xa0>
 8002040:	2301      	movs	r3, #1
 8002042:	e7f1      	b.n	8002028 <RCC_SetFlashLatencyFromMSIRange+0xa0>
 8002044:	2302      	movs	r3, #2
 8002046:	e7ef      	b.n	8002028 <RCC_SetFlashLatencyFromMSIRange+0xa0>
 8002048:	f7ff fcd0 	bl	80019ec <HAL_GetTick>
 800204c:	1b80      	subs	r0, r0, r6
 800204e:	2802      	cmp	r0, #2
 8002050:	d9da      	bls.n	8002008 <RCC_SetFlashLatencyFromMSIRange+0x80>
 8002052:	2003      	movs	r0, #3
 8002054:	e7de      	b.n	8002014 <RCC_SetFlashLatencyFromMSIRange+0x8c>
 8002056:	bf00      	nop
 8002058:	08005130 	.word	0x08005130
 800205c:	080050f0 	.word	0x080050f0
 8002060:	08004f40 	.word	0x08004f40
 8002064:	006acfc0 	.word	0x006acfc0
 8002068:	58004000 	.word	0x58004000
 800206c:	000f4240 	.word	0x000f4240

08002070 <HAL_RCC_GetSysClockFreq>:
 8002070:	f04f 43b0 	mov.w	r3, #1476395008	; 0x58000000
 8002074:	689a      	ldr	r2, [r3, #8]
 8002076:	f012 020c 	ands.w	r2, r2, #12
 800207a:	d10a      	bne.n	8002092 <HAL_RCC_GetSysClockFreq+0x22>
 800207c:	681b      	ldr	r3, [r3, #0]
 800207e:	4a22      	ldr	r2, [pc, #136]	; (8002108 <HAL_RCC_GetSysClockFreq+0x98>)
 8002080:	f003 03f0 	and.w	r3, r3, #240	; 0xf0
 8002084:	2bb0      	cmp	r3, #176	; 0xb0
 8002086:	bf28      	it	cs
 8002088:	23b0      	movcs	r3, #176	; 0xb0
 800208a:	091b      	lsrs	r3, r3, #4
 800208c:	f852 0023 	ldr.w	r0, [r2, r3, lsl #2]
 8002090:	4770      	bx	lr
 8002092:	2a04      	cmp	r2, #4
 8002094:	d035      	beq.n	8002102 <HAL_RCC_GetSysClockFreq+0x92>
 8002096:	2a08      	cmp	r2, #8
 8002098:	d107      	bne.n	80020aa <HAL_RCC_GetSysClockFreq+0x3a>
 800209a:	681b      	ldr	r3, [r3, #0]
 800209c:	481b      	ldr	r0, [pc, #108]	; (800210c <HAL_RCC_GetSysClockFreq+0x9c>)
 800209e:	f413 1f80 	tst.w	r3, #1048576	; 0x100000
 80020a2:	4b1b      	ldr	r3, [pc, #108]	; (8002110 <HAL_RCC_GetSysClockFreq+0xa0>)
 80020a4:	bf08      	it	eq
 80020a6:	4618      	moveq	r0, r3
 80020a8:	4770      	bx	lr
 80020aa:	68da      	ldr	r2, [r3, #12]
 80020ac:	f002 0203 	and.w	r2, r2, #3
 80020b0:	2a02      	cmp	r2, #2
 80020b2:	d024      	beq.n	80020fe <HAL_RCC_GetSysClockFreq+0x8e>
 80020b4:	2a03      	cmp	r2, #3
 80020b6:	681b      	ldr	r3, [r3, #0]
 80020b8:	d117      	bne.n	80020ea <HAL_RCC_GetSysClockFreq+0x7a>
 80020ba:	4815      	ldr	r0, [pc, #84]	; (8002110 <HAL_RCC_GetSysClockFreq+0xa0>)
 80020bc:	4913      	ldr	r1, [pc, #76]	; (800210c <HAL_RCC_GetSysClockFreq+0x9c>)
 80020be:	f413 1f80 	tst.w	r3, #1048576	; 0x100000
 80020c2:	bf08      	it	eq
 80020c4:	4601      	moveq	r1, r0
 80020c6:	f04f 43b0 	mov.w	r3, #1476395008	; 0x58000000
 80020ca:	68d8      	ldr	r0, [r3, #12]
 80020cc:	68da      	ldr	r2, [r3, #12]
 80020ce:	68db      	ldr	r3, [r3, #12]
 80020d0:	f3c0 2006 	ubfx	r0, r0, #8, #7
 80020d4:	f3c2 1202 	ubfx	r2, r2, #4, #3
 80020d8:	0f5b      	lsrs	r3, r3, #29
 80020da:	4348      	muls	r0, r1
 80020dc:	3201      	adds	r2, #1
 80020de:	3301      	adds	r3, #1
 80020e0:	fbb0 f0f2 	udiv	r0, r0, r2
 80020e4:	fbb0 f0f3 	udiv	r0, r0, r3
 80020e8:	4770      	bx	lr
 80020ea:	f003 03f0 	and.w	r3, r3, #240	; 0xf0
 80020ee:	2bb0      	cmp	r3, #176	; 0xb0
 80020f0:	bf28      	it	cs
 80020f2:	23b0      	movcs	r3, #176	; 0xb0
 80020f4:	4a04      	ldr	r2, [pc, #16]	; (8002108 <HAL_RCC_GetSysClockFreq+0x98>)
 80020f6:	091b      	lsrs	r3, r3, #4
 80020f8:	f852 1023 	ldr.w	r1, [r2, r3, lsl #2]
 80020fc:	e7e3      	b.n	80020c6 <HAL_RCC_GetSysClockFreq+0x56>
 80020fe:	4903      	ldr	r1, [pc, #12]	; (800210c <HAL_RCC_GetSysClockFreq+0x9c>)
 8002100:	e7e1      	b.n	80020c6 <HAL_RCC_GetSysClockFreq+0x56>
 8002102:	4802      	ldr	r0, [pc, #8]	; (800210c <HAL_RCC_GetSysClockFreq+0x9c>)
 8002104:	4770      	bx	lr
 8002106:	bf00      	nop
 8002108:	08005130 	.word	0x08005130
 800210c:	00f42400 	.word	0x00f42400
 8002110:	01e84800 	.word	0x01e84800

08002114 <HAL_RCC_GetHCLKFreq>:
 8002114:	b508      	push	{r3, lr}
 8002116:	f7ff ffab 	bl	8002070 <HAL_RCC_GetSysClockFreq>
 800211a:	f04f 43b0 	mov.w	r3, #1476395008	; 0x58000000
 800211e:	4a04      	ldr	r2, [pc, #16]	; (8002130 <HAL_RCC_GetHCLKFreq+0x1c>)
 8002120:	689b      	ldr	r3, [r3, #8]
 8002122:	f3c3 1303 	ubfx	r3, r3, #4, #4
 8002126:	f852 3023 	ldr.w	r3, [r2, r3, lsl #2]
 800212a:	fbb0 f0f3 	udiv	r0, r0, r3
 800212e:	bd08      	pop	{r3, pc}
 8002130:	080050f0 	.word	0x080050f0

08002134 <HAL_RCC_OscConfig>:
 8002134:	b5f8      	push	{r3, r4, r5, r6, r7, lr}
 8002136:	4604      	mov	r4, r0
 8002138:	b908      	cbnz	r0, 800213e <HAL_RCC_OscConfig+0xa>
 800213a:	2001      	movs	r0, #1
 800213c:	e0b3      	b.n	80022a6 <HAL_RCC_OscConfig+0x172>
 800213e:	6803      	ldr	r3, [r0, #0]
 8002140:	069a      	lsls	r2, r3, #26
 8002142:	d530      	bpl.n	80021a6 <HAL_RCC_OscConfig+0x72>
 8002144:	f04f 42b0 	mov.w	r2, #1476395008	; 0x58000000
 8002148:	69c1      	ldr	r1, [r0, #28]
 800214a:	6893      	ldr	r3, [r2, #8]
 800214c:	68d2      	ldr	r2, [r2, #12]
 800214e:	f013 030c 	ands.w	r3, r3, #12
 8002152:	d007      	beq.n	8002164 <HAL_RCC_OscConfig+0x30>
 8002154:	2b0c      	cmp	r3, #12
 8002156:	f040 808c 	bne.w	8002272 <HAL_RCC_OscConfig+0x13e>
 800215a:	f002 0303 	and.w	r3, r2, #3
 800215e:	2b01      	cmp	r3, #1
 8002160:	f040 8087 	bne.w	8002272 <HAL_RCC_OscConfig+0x13e>
 8002164:	2900      	cmp	r1, #0
 8002166:	d0e8      	beq.n	800213a <HAL_RCC_OscConfig+0x6>
 8002168:	f04f 43b0 	mov.w	r3, #1476395008	; 0x58000000
 800216c:	6a60      	ldr	r0, [r4, #36]	; 0x24
 800216e:	681b      	ldr	r3, [r3, #0]
 8002170:	f003 03f0 	and.w	r3, r3, #240	; 0xf0
 8002174:	2bb0      	cmp	r3, #176	; 0xb0
 8002176:	bf28      	it	cs
 8002178:	23b0      	movcs	r3, #176	; 0xb0
 800217a:	4298      	cmp	r0, r3
 800217c:	d96e      	bls.n	800225c <HAL_RCC_OscConfig+0x128>
 800217e:	f7ff ff03 	bl	8001f88 <RCC_SetFlashLatencyFromMSIRange>
 8002182:	2800      	cmp	r0, #0
 8002184:	d1d9      	bne.n	800213a <HAL_RCC_OscConfig+0x6>
 8002186:	6a60      	ldr	r0, [r4, #36]	; 0x24
 8002188:	f7ff feed 	bl	8001f66 <LL_RCC_MSI_SetRange>
 800218c:	6a20      	ldr	r0, [r4, #32]
 800218e:	f7ff fef2 	bl	8001f76 <LL_RCC_MSI_SetCalibTrimming>
 8002192:	f7ff ffbf 	bl	8002114 <HAL_RCC_GetHCLKFreq>
 8002196:	4bb1      	ldr	r3, [pc, #708]	; (800245c <HAL_RCC_OscConfig+0x328>)
 8002198:	6018      	str	r0, [r3, #0]
 800219a:	4bb1      	ldr	r3, [pc, #708]	; (8002460 <HAL_RCC_OscConfig+0x32c>)
 800219c:	6818      	ldr	r0, [r3, #0]
 800219e:	f7ff fbdd 	bl	800195c <HAL_InitTick>
 80021a2:	2800      	cmp	r0, #0
 80021a4:	d1c9      	bne.n	800213a <HAL_RCC_OscConfig+0x6>
 80021a6:	6823      	ldr	r3, [r4, #0]
 80021a8:	07db      	lsls	r3, r3, #31
 80021aa:	d511      	bpl.n	80021d0 <HAL_RCC_OscConfig+0x9c>
 80021ac:	f04f 42b0 	mov.w	r2, #1476395008	; 0x58000000
 80021b0:	6893      	ldr	r3, [r2, #8]
 80021b2:	68d1      	ldr	r1, [r2, #12]
 80021b4:	6862      	ldr	r2, [r4, #4]
 80021b6:	f003 030c 	and.w	r3, r3, #12
 80021ba:	2b08      	cmp	r3, #8
 80021bc:	d006      	beq.n	80021cc <HAL_RCC_OscConfig+0x98>
 80021be:	2b0c      	cmp	r3, #12
 80021c0:	f040 8083 	bne.w	80022ca <HAL_RCC_OscConfig+0x196>
 80021c4:	f001 0303 	and.w	r3, r1, #3
 80021c8:	2b03      	cmp	r3, #3
 80021ca:	d17e      	bne.n	80022ca <HAL_RCC_OscConfig+0x196>
 80021cc:	2a00      	cmp	r2, #0
 80021ce:	d0b4      	beq.n	800213a <HAL_RCC_OscConfig+0x6>
 80021d0:	6823      	ldr	r3, [r4, #0]
 80021d2:	0799      	lsls	r1, r3, #30
 80021d4:	d51b      	bpl.n	800220e <HAL_RCC_OscConfig+0xda>
 80021d6:	f04f 42b0 	mov.w	r2, #1476395008	; 0x58000000
 80021da:	68e1      	ldr	r1, [r4, #12]
 80021dc:	6893      	ldr	r3, [r2, #8]
 80021de:	68d2      	ldr	r2, [r2, #12]
 80021e0:	f003 030c 	and.w	r3, r3, #12
 80021e4:	2b04      	cmp	r3, #4
 80021e6:	d007      	beq.n	80021f8 <HAL_RCC_OscConfig+0xc4>
 80021e8:	2b0c      	cmp	r3, #12
 80021ea:	f040 8098 	bne.w	800231e <HAL_RCC_OscConfig+0x1ea>
 80021ee:	f002 0303 	and.w	r3, r2, #3
 80021f2:	2b02      	cmp	r3, #2
 80021f4:	f040 8093 	bne.w	800231e <HAL_RCC_OscConfig+0x1ea>
 80021f8:	2900      	cmp	r1, #0
 80021fa:	d09e      	beq.n	800213a <HAL_RCC_OscConfig+0x6>
 80021fc:	f04f 42b0 	mov.w	r2, #1476395008	; 0x58000000
 8002200:	6921      	ldr	r1, [r4, #16]
 8002202:	6853      	ldr	r3, [r2, #4]
 8002204:	f023 43fe 	bic.w	r3, r3, #2130706432	; 0x7f000000
 8002208:	ea43 6301 	orr.w	r3, r3, r1, lsl #24
 800220c:	6053      	str	r3, [r2, #4]
 800220e:	6823      	ldr	r3, [r4, #0]
 8002210:	f013 0f18 	tst.w	r3, #24
 8002214:	f040 80ae 	bne.w	8002374 <HAL_RCC_OscConfig+0x240>
 8002218:	6823      	ldr	r3, [r4, #0]
 800221a:	075f      	lsls	r7, r3, #29
 800221c:	f100 8149 	bmi.w	80024b2 <HAL_RCC_OscConfig+0x37e>
 8002220:	6823      	ldr	r3, [r4, #0]
 8002222:	065a      	lsls	r2, r3, #25
 8002224:	f140 81ae 	bpl.w	8002584 <HAL_RCC_OscConfig+0x450>
 8002228:	6aa3      	ldr	r3, [r4, #40]	; 0x28
 800222a:	f04f 45b0 	mov.w	r5, #1476395008	; 0x58000000
 800222e:	2b00      	cmp	r3, #0
 8002230:	f000 8195 	beq.w	800255e <HAL_RCC_OscConfig+0x42a>
 8002234:	f8d5 3098 	ldr.w	r3, [r5, #152]	; 0x98
 8002238:	f043 0301 	orr.w	r3, r3, #1
 800223c:	f8c5 3098 	str.w	r3, [r5, #152]	; 0x98
 8002240:	f7ff fbd4 	bl	80019ec <HAL_GetTick>
 8002244:	4606      	mov	r6, r0
 8002246:	f8d5 3098 	ldr.w	r3, [r5, #152]	; 0x98
 800224a:	079b      	lsls	r3, r3, #30
 800224c:	f100 819a 	bmi.w	8002584 <HAL_RCC_OscConfig+0x450>
 8002250:	f7ff fbcc 	bl	80019ec <HAL_GetTick>
 8002254:	1b83      	subs	r3, r0, r6
 8002256:	2b02      	cmp	r3, #2
 8002258:	d9f5      	bls.n	8002246 <HAL_RCC_OscConfig+0x112>
 800225a:	e023      	b.n	80022a4 <HAL_RCC_OscConfig+0x170>
 800225c:	f7ff fe83 	bl	8001f66 <LL_RCC_MSI_SetRange>
 8002260:	6a20      	ldr	r0, [r4, #32]
 8002262:	f7ff fe88 	bl	8001f76 <LL_RCC_MSI_SetCalibTrimming>
 8002266:	6a60      	ldr	r0, [r4, #36]	; 0x24
 8002268:	f7ff fe8e 	bl	8001f88 <RCC_SetFlashLatencyFromMSIRange>
 800226c:	2800      	cmp	r0, #0
 800226e:	d090      	beq.n	8002192 <HAL_RCC_OscConfig+0x5e>
 8002270:	e763      	b.n	800213a <HAL_RCC_OscConfig+0x6>
 8002272:	f04f 43b0 	mov.w	r3, #1476395008	; 0x58000000
 8002276:	681a      	ldr	r2, [r3, #0]
 8002278:	b1b1      	cbz	r1, 80022a8 <HAL_RCC_OscConfig+0x174>
 800227a:	f042 0201 	orr.w	r2, r2, #1
 800227e:	601a      	str	r2, [r3, #0]
 8002280:	f7ff fbb4 	bl	80019ec <HAL_GetTick>
 8002284:	4605      	mov	r5, r0
 8002286:	f7ff fe68 	bl	8001f5a <LL_RCC_MSI_IsReady>
 800228a:	b130      	cbz	r0, 800229a <HAL_RCC_OscConfig+0x166>
 800228c:	6a60      	ldr	r0, [r4, #36]	; 0x24
 800228e:	f7ff fe6a 	bl	8001f66 <LL_RCC_MSI_SetRange>
 8002292:	6a20      	ldr	r0, [r4, #32]
 8002294:	f7ff fe6f 	bl	8001f76 <LL_RCC_MSI_SetCalibTrimming>
 8002298:	e785      	b.n	80021a6 <HAL_RCC_OscConfig+0x72>
 800229a:	f7ff fba7 	bl	80019ec <HAL_GetTick>
 800229e:	1b40      	subs	r0, r0, r5
 80022a0:	2802      	cmp	r0, #2
 80022a2:	d9f0      	bls.n	8002286 <HAL_RCC_OscConfig+0x152>
 80022a4:	2003      	movs	r0, #3
 80022a6:	bdf8      	pop	{r3, r4, r5, r6, r7, pc}
 80022a8:	f022 0201 	bic.w	r2, r2, #1
 80022ac:	601a      	str	r2, [r3, #0]
 80022ae:	f7ff fb9d 	bl	80019ec <HAL_GetTick>
 80022b2:	4605      	mov	r5, r0
 80022b4:	f7ff fe51 	bl	8001f5a <LL_RCC_MSI_IsReady>
 80022b8:	2800      	cmp	r0, #0
 80022ba:	f43f af74 	beq.w	80021a6 <HAL_RCC_OscConfig+0x72>
 80022be:	f7ff fb95 	bl	80019ec <HAL_GetTick>
 80022c2:	1b40      	subs	r0, r0, r5
 80022c4:	2802      	cmp	r0, #2
 80022c6:	d9f5      	bls.n	80022b4 <HAL_RCC_OscConfig+0x180>
 80022c8:	e7ec      	b.n	80022a4 <HAL_RCC_OscConfig+0x170>
 80022ca:	f04f 45b0 	mov.w	r5, #1476395008	; 0x58000000
 80022ce:	f5b2 3f80 	cmp.w	r2, #65536	; 0x10000
 80022d2:	682b      	ldr	r3, [r5, #0]
 80022d4:	d111      	bne.n	80022fa <HAL_RCC_OscConfig+0x1c6>
 80022d6:	f443 3380 	orr.w	r3, r3, #65536	; 0x10000
 80022da:	602b      	str	r3, [r5, #0]
 80022dc:	f7ff fb86 	bl	80019ec <HAL_GetTick>
 80022e0:	f04f 46b0 	mov.w	r6, #1476395008	; 0x58000000
 80022e4:	4605      	mov	r5, r0
 80022e6:	6833      	ldr	r3, [r6, #0]
 80022e8:	039f      	lsls	r7, r3, #14
 80022ea:	f53f af71 	bmi.w	80021d0 <HAL_RCC_OscConfig+0x9c>
 80022ee:	f7ff fb7d 	bl	80019ec <HAL_GetTick>
 80022f2:	1b43      	subs	r3, r0, r5
 80022f4:	2b64      	cmp	r3, #100	; 0x64
 80022f6:	d9f6      	bls.n	80022e6 <HAL_RCC_OscConfig+0x1b2>
 80022f8:	e7d4      	b.n	80022a4 <HAL_RCC_OscConfig+0x170>
 80022fa:	f423 3380 	bic.w	r3, r3, #65536	; 0x10000
 80022fe:	602b      	str	r3, [r5, #0]
 8002300:	2a00      	cmp	r2, #0
 8002302:	d1eb      	bne.n	80022dc <HAL_RCC_OscConfig+0x1a8>
 8002304:	f7ff fb72 	bl	80019ec <HAL_GetTick>
 8002308:	4606      	mov	r6, r0
 800230a:	682b      	ldr	r3, [r5, #0]
 800230c:	0398      	lsls	r0, r3, #14
 800230e:	f57f af5f 	bpl.w	80021d0 <HAL_RCC_OscConfig+0x9c>
 8002312:	f7ff fb6b 	bl	80019ec <HAL_GetTick>
 8002316:	1b83      	subs	r3, r0, r6
 8002318:	2b64      	cmp	r3, #100	; 0x64
 800231a:	d9f6      	bls.n	800230a <HAL_RCC_OscConfig+0x1d6>
 800231c:	e7c2      	b.n	80022a4 <HAL_RCC_OscConfig+0x170>
 800231e:	f04f 45b0 	mov.w	r5, #1476395008	; 0x58000000
 8002322:	682b      	ldr	r3, [r5, #0]
 8002324:	b1b1      	cbz	r1, 8002354 <HAL_RCC_OscConfig+0x220>
 8002326:	f443 7380 	orr.w	r3, r3, #256	; 0x100
 800232a:	602b      	str	r3, [r5, #0]
 800232c:	f7ff fb5e 	bl	80019ec <HAL_GetTick>
 8002330:	4606      	mov	r6, r0
 8002332:	682b      	ldr	r3, [r5, #0]
 8002334:	055a      	lsls	r2, r3, #21
 8002336:	d405      	bmi.n	8002344 <HAL_RCC_OscConfig+0x210>
 8002338:	f7ff fb58 	bl	80019ec <HAL_GetTick>
 800233c:	1b83      	subs	r3, r0, r6
 800233e:	2b02      	cmp	r3, #2
 8002340:	d9f7      	bls.n	8002332 <HAL_RCC_OscConfig+0x1fe>
 8002342:	e7af      	b.n	80022a4 <HAL_RCC_OscConfig+0x170>
 8002344:	686b      	ldr	r3, [r5, #4]
 8002346:	6922      	ldr	r2, [r4, #16]
 8002348:	f023 43fe 	bic.w	r3, r3, #2130706432	; 0x7f000000
 800234c:	ea43 6302 	orr.w	r3, r3, r2, lsl #24
 8002350:	606b      	str	r3, [r5, #4]
 8002352:	e75c      	b.n	800220e <HAL_RCC_OscConfig+0xda>
 8002354:	f423 7380 	bic.w	r3, r3, #256	; 0x100
 8002358:	602b      	str	r3, [r5, #0]
 800235a:	f7ff fb47 	bl	80019ec <HAL_GetTick>
 800235e:	4606      	mov	r6, r0
 8002360:	682b      	ldr	r3, [r5, #0]
 8002362:	055b      	lsls	r3, r3, #21
 8002364:	f57f af53 	bpl.w	800220e <HAL_RCC_OscConfig+0xda>
 8002368:	f7ff fb40 	bl	80019ec <HAL_GetTick>
 800236c:	1b83      	subs	r3, r0, r6
 800236e:	2b02      	cmp	r3, #2
 8002370:	d9f6      	bls.n	8002360 <HAL_RCC_OscConfig+0x22c>
 8002372:	e797      	b.n	80022a4 <HAL_RCC_OscConfig+0x170>
 8002374:	6962      	ldr	r2, [r4, #20]
 8002376:	f04f 45b0 	mov.w	r5, #1476395008	; 0x58000000
 800237a:	2a00      	cmp	r2, #0
 800237c:	d072      	beq.n	8002464 <HAL_RCC_OscConfig+0x330>
 800237e:	06de      	lsls	r6, r3, #27
 8002380:	d547      	bpl.n	8002412 <HAL_RCC_OscConfig+0x2de>
 8002382:	f7ff fde3 	bl	8001f4c <LL_RCC_LSI1_IsReady>
 8002386:	b1a0      	cbz	r0, 80023b2 <HAL_RCC_OscConfig+0x27e>
 8002388:	f04f 45b0 	mov.w	r5, #1476395008	; 0x58000000
 800238c:	f8d5 3094 	ldr.w	r3, [r5, #148]	; 0x94
 8002390:	f043 0304 	orr.w	r3, r3, #4
 8002394:	f8c5 3094 	str.w	r3, [r5, #148]	; 0x94
 8002398:	f7ff fb28 	bl	80019ec <HAL_GetTick>
 800239c:	4606      	mov	r6, r0
 800239e:	f8d5 3094 	ldr.w	r3, [r5, #148]	; 0x94
 80023a2:	0718      	lsls	r0, r3, #28
 80023a4:	d418      	bmi.n	80023d8 <HAL_RCC_OscConfig+0x2a4>
 80023a6:	f7ff fb21 	bl	80019ec <HAL_GetTick>
 80023aa:	1b83      	subs	r3, r0, r6
 80023ac:	2b03      	cmp	r3, #3
 80023ae:	d9f6      	bls.n	800239e <HAL_RCC_OscConfig+0x26a>
 80023b0:	e778      	b.n	80022a4 <HAL_RCC_OscConfig+0x170>
 80023b2:	f8d5 3094 	ldr.w	r3, [r5, #148]	; 0x94
 80023b6:	f043 0301 	orr.w	r3, r3, #1
 80023ba:	f8c5 3094 	str.w	r3, [r5, #148]	; 0x94
 80023be:	f7ff fb15 	bl	80019ec <HAL_GetTick>
 80023c2:	4605      	mov	r5, r0
 80023c4:	f7ff fdc2 	bl	8001f4c <LL_RCC_LSI1_IsReady>
 80023c8:	2800      	cmp	r0, #0
 80023ca:	d1dd      	bne.n	8002388 <HAL_RCC_OscConfig+0x254>
 80023cc:	f7ff fb0e 	bl	80019ec <HAL_GetTick>
 80023d0:	1b40      	subs	r0, r0, r5
 80023d2:	2802      	cmp	r0, #2
 80023d4:	d9f6      	bls.n	80023c4 <HAL_RCC_OscConfig+0x290>
 80023d6:	e765      	b.n	80022a4 <HAL_RCC_OscConfig+0x170>
 80023d8:	f8d5 3094 	ldr.w	r3, [r5, #148]	; 0x94
 80023dc:	69a2      	ldr	r2, [r4, #24]
 80023de:	f423 6370 	bic.w	r3, r3, #3840	; 0xf00
 80023e2:	ea43 2302 	orr.w	r3, r3, r2, lsl #8
 80023e6:	f8c5 3094 	str.w	r3, [r5, #148]	; 0x94
 80023ea:	f8d5 3094 	ldr.w	r3, [r5, #148]	; 0x94
 80023ee:	f023 0301 	bic.w	r3, r3, #1
 80023f2:	f8c5 3094 	str.w	r3, [r5, #148]	; 0x94
 80023f6:	f7ff faf9 	bl	80019ec <HAL_GetTick>
 80023fa:	4605      	mov	r5, r0
 80023fc:	f7ff fda6 	bl	8001f4c <LL_RCC_LSI1_IsReady>
 8002400:	2800      	cmp	r0, #0
 8002402:	f43f af09 	beq.w	8002218 <HAL_RCC_OscConfig+0xe4>
 8002406:	f7ff faf1 	bl	80019ec <HAL_GetTick>
 800240a:	1b40      	subs	r0, r0, r5
 800240c:	2802      	cmp	r0, #2
 800240e:	d9f5      	bls.n	80023fc <HAL_RCC_OscConfig+0x2c8>
 8002410:	e748      	b.n	80022a4 <HAL_RCC_OscConfig+0x170>
 8002412:	f8d5 3094 	ldr.w	r3, [r5, #148]	; 0x94
 8002416:	f043 0301 	orr.w	r3, r3, #1
 800241a:	f8c5 3094 	str.w	r3, [r5, #148]	; 0x94
 800241e:	f7ff fae5 	bl	80019ec <HAL_GetTick>
 8002422:	4605      	mov	r5, r0
 8002424:	f7ff fd92 	bl	8001f4c <LL_RCC_LSI1_IsReady>
 8002428:	b190      	cbz	r0, 8002450 <HAL_RCC_OscConfig+0x31c>
 800242a:	f04f 46b0 	mov.w	r6, #1476395008	; 0x58000000
 800242e:	f8d6 3094 	ldr.w	r3, [r6, #148]	; 0x94
 8002432:	f023 0304 	bic.w	r3, r3, #4
 8002436:	f8c6 3094 	str.w	r3, [r6, #148]	; 0x94
 800243a:	f8d6 3094 	ldr.w	r3, [r6, #148]	; 0x94
 800243e:	0719      	lsls	r1, r3, #28
 8002440:	f57f aeea 	bpl.w	8002218 <HAL_RCC_OscConfig+0xe4>
 8002444:	f7ff fad2 	bl	80019ec <HAL_GetTick>
 8002448:	1b40      	subs	r0, r0, r5
 800244a:	2803      	cmp	r0, #3
 800244c:	d9f5      	bls.n	800243a <HAL_RCC_OscConfig+0x306>
 800244e:	e729      	b.n	80022a4 <HAL_RCC_OscConfig+0x170>
 8002450:	f7ff facc 	bl	80019ec <HAL_GetTick>
 8002454:	1b40      	subs	r0, r0, r5
 8002456:	2802      	cmp	r0, #2
 8002458:	d9e4      	bls.n	8002424 <HAL_RCC_OscConfig+0x2f0>
 800245a:	e723      	b.n	80022a4 <HAL_RCC_OscConfig+0x170>
 800245c:	20000024 	.word	0x20000024
 8002460:	2000002c 	.word	0x2000002c
 8002464:	f8d5 3094 	ldr.w	r3, [r5, #148]	; 0x94
 8002468:	f023 0304 	bic.w	r3, r3, #4
 800246c:	f8c5 3094 	str.w	r3, [r5, #148]	; 0x94
 8002470:	f7ff fabc 	bl	80019ec <HAL_GetTick>
 8002474:	4606      	mov	r6, r0
 8002476:	f8d5 3094 	ldr.w	r3, [r5, #148]	; 0x94
 800247a:	071a      	lsls	r2, r3, #28
 800247c:	d413      	bmi.n	80024a6 <HAL_RCC_OscConfig+0x372>
 800247e:	f8d5 3094 	ldr.w	r3, [r5, #148]	; 0x94
 8002482:	f023 0301 	bic.w	r3, r3, #1
 8002486:	f8c5 3094 	str.w	r3, [r5, #148]	; 0x94
 800248a:	f7ff faaf 	bl	80019ec <HAL_GetTick>
 800248e:	4605      	mov	r5, r0
 8002490:	f7ff fd5c 	bl	8001f4c <LL_RCC_LSI1_IsReady>
 8002494:	2800      	cmp	r0, #0
 8002496:	f43f aebf 	beq.w	8002218 <HAL_RCC_OscConfig+0xe4>
 800249a:	f7ff faa7 	bl	80019ec <HAL_GetTick>
 800249e:	1b40      	subs	r0, r0, r5
 80024a0:	2802      	cmp	r0, #2
 80024a2:	d9f5      	bls.n	8002490 <HAL_RCC_OscConfig+0x35c>
 80024a4:	e6fe      	b.n	80022a4 <HAL_RCC_OscConfig+0x170>
 80024a6:	f7ff faa1 	bl	80019ec <HAL_GetTick>
 80024aa:	1b83      	subs	r3, r0, r6
 80024ac:	2b03      	cmp	r3, #3
 80024ae:	d9e2      	bls.n	8002476 <HAL_RCC_OscConfig+0x342>
 80024b0:	e6f8      	b.n	80022a4 <HAL_RCC_OscConfig+0x170>
 80024b2:	4e81      	ldr	r6, [pc, #516]	; (80026b8 <HAL_RCC_OscConfig+0x584>)
 80024b4:	6833      	ldr	r3, [r6, #0]
 80024b6:	05db      	lsls	r3, r3, #23
 80024b8:	d51c      	bpl.n	80024f4 <HAL_RCC_OscConfig+0x3c0>
 80024ba:	68a3      	ldr	r3, [r4, #8]
 80024bc:	2b01      	cmp	r3, #1
 80024be:	f04f 45b0 	mov.w	r5, #1476395008	; 0x58000000
 80024c2:	d125      	bne.n	8002510 <HAL_RCC_OscConfig+0x3dc>
 80024c4:	f8d5 3090 	ldr.w	r3, [r5, #144]	; 0x90
 80024c8:	f043 0301 	orr.w	r3, r3, #1
 80024cc:	f8c5 3090 	str.w	r3, [r5, #144]	; 0x90
 80024d0:	f7ff fa8c 	bl	80019ec <HAL_GetTick>
 80024d4:	f04f 47b0 	mov.w	r7, #1476395008	; 0x58000000
 80024d8:	4605      	mov	r5, r0
 80024da:	f241 3688 	movw	r6, #5000	; 0x1388
 80024de:	f8d7 3090 	ldr.w	r3, [r7, #144]	; 0x90
 80024e2:	0798      	lsls	r0, r3, #30
 80024e4:	f53f ae9c 	bmi.w	8002220 <HAL_RCC_OscConfig+0xec>
 80024e8:	f7ff fa80 	bl	80019ec <HAL_GetTick>
 80024ec:	1b43      	subs	r3, r0, r5
 80024ee:	42b3      	cmp	r3, r6
 80024f0:	d9f5      	bls.n	80024de <HAL_RCC_OscConfig+0x3aa>
 80024f2:	e6d7      	b.n	80022a4 <HAL_RCC_OscConfig+0x170>
 80024f4:	f7ff fd1a 	bl	8001f2c <HAL_PWR_EnableBkUpAccess>
 80024f8:	f7ff fa78 	bl	80019ec <HAL_GetTick>
 80024fc:	4605      	mov	r5, r0
 80024fe:	6833      	ldr	r3, [r6, #0]
 8002500:	05df      	lsls	r7, r3, #23
 8002502:	d4da      	bmi.n	80024ba <HAL_RCC_OscConfig+0x386>
 8002504:	f7ff fa72 	bl	80019ec <HAL_GetTick>
 8002508:	1b40      	subs	r0, r0, r5
 800250a:	2802      	cmp	r0, #2
 800250c:	d9f7      	bls.n	80024fe <HAL_RCC_OscConfig+0x3ca>
 800250e:	e6c9      	b.n	80022a4 <HAL_RCC_OscConfig+0x170>
 8002510:	2b05      	cmp	r3, #5
 8002512:	d106      	bne.n	8002522 <HAL_RCC_OscConfig+0x3ee>
 8002514:	f8d5 3090 	ldr.w	r3, [r5, #144]	; 0x90
 8002518:	f043 0304 	orr.w	r3, r3, #4
 800251c:	f8c5 3090 	str.w	r3, [r5, #144]	; 0x90
 8002520:	e7d0      	b.n	80024c4 <HAL_RCC_OscConfig+0x390>
 8002522:	f8d5 2090 	ldr.w	r2, [r5, #144]	; 0x90
 8002526:	f022 0201 	bic.w	r2, r2, #1
 800252a:	f8c5 2090 	str.w	r2, [r5, #144]	; 0x90
 800252e:	f8d5 2090 	ldr.w	r2, [r5, #144]	; 0x90
 8002532:	f022 0204 	bic.w	r2, r2, #4
 8002536:	f8c5 2090 	str.w	r2, [r5, #144]	; 0x90
 800253a:	2b00      	cmp	r3, #0
 800253c:	d1c8      	bne.n	80024d0 <HAL_RCC_OscConfig+0x39c>
 800253e:	f7ff fa55 	bl	80019ec <HAL_GetTick>
 8002542:	f241 3788 	movw	r7, #5000	; 0x1388
 8002546:	4606      	mov	r6, r0
 8002548:	f8d5 3090 	ldr.w	r3, [r5, #144]	; 0x90
 800254c:	0799      	lsls	r1, r3, #30
 800254e:	f57f ae67 	bpl.w	8002220 <HAL_RCC_OscConfig+0xec>
 8002552:	f7ff fa4b 	bl	80019ec <HAL_GetTick>
 8002556:	1b83      	subs	r3, r0, r6
 8002558:	42bb      	cmp	r3, r7
 800255a:	d9f5      	bls.n	8002548 <HAL_RCC_OscConfig+0x414>
 800255c:	e6a2      	b.n	80022a4 <HAL_RCC_OscConfig+0x170>
 800255e:	f8d5 3098 	ldr.w	r3, [r5, #152]	; 0x98
 8002562:	f023 0301 	bic.w	r3, r3, #1
 8002566:	f8c5 3098 	str.w	r3, [r5, #152]	; 0x98
 800256a:	f7ff fa3f 	bl	80019ec <HAL_GetTick>
 800256e:	4606      	mov	r6, r0
 8002570:	f8d5 3098 	ldr.w	r3, [r5, #152]	; 0x98
 8002574:	079f      	lsls	r7, r3, #30
 8002576:	d505      	bpl.n	8002584 <HAL_RCC_OscConfig+0x450>
 8002578:	f7ff fa38 	bl	80019ec <HAL_GetTick>
 800257c:	1b83      	subs	r3, r0, r6
 800257e:	2b02      	cmp	r3, #2
 8002580:	d9f6      	bls.n	8002570 <HAL_RCC_OscConfig+0x43c>
 8002582:	e68f      	b.n	80022a4 <HAL_RCC_OscConfig+0x170>
 8002584:	6ae1      	ldr	r1, [r4, #44]	; 0x2c
 8002586:	b909      	cbnz	r1, 800258c <HAL_RCC_OscConfig+0x458>
 8002588:	2000      	movs	r0, #0
 800258a:	e68c      	b.n	80022a6 <HAL_RCC_OscConfig+0x172>
 800258c:	f04f 45b0 	mov.w	r5, #1476395008	; 0x58000000
 8002590:	2902      	cmp	r1, #2
 8002592:	68aa      	ldr	r2, [r5, #8]
 8002594:	68eb      	ldr	r3, [r5, #12]
 8002596:	f002 020c 	and.w	r2, r2, #12
 800259a:	d174      	bne.n	8002686 <HAL_RCC_OscConfig+0x552>
 800259c:	6b20      	ldr	r0, [r4, #48]	; 0x30
 800259e:	f003 0103 	and.w	r1, r3, #3
 80025a2:	4281      	cmp	r1, r0
 80025a4:	d118      	bne.n	80025d8 <HAL_RCC_OscConfig+0x4a4>
 80025a6:	6b60      	ldr	r0, [r4, #52]	; 0x34
 80025a8:	f003 0170 	and.w	r1, r3, #112	; 0x70
 80025ac:	4281      	cmp	r1, r0
 80025ae:	d113      	bne.n	80025d8 <HAL_RCC_OscConfig+0x4a4>
 80025b0:	6ba0      	ldr	r0, [r4, #56]	; 0x38
 80025b2:	f3c3 2106 	ubfx	r1, r3, #8, #7
 80025b6:	4281      	cmp	r1, r0
 80025b8:	d10e      	bne.n	80025d8 <HAL_RCC_OscConfig+0x4a4>
 80025ba:	6be0      	ldr	r0, [r4, #60]	; 0x3c
 80025bc:	f403 1178 	and.w	r1, r3, #4063232	; 0x3e0000
 80025c0:	4281      	cmp	r1, r0
 80025c2:	d109      	bne.n	80025d8 <HAL_RCC_OscConfig+0x4a4>
 80025c4:	6c20      	ldr	r0, [r4, #64]	; 0x40
 80025c6:	f003 6160 	and.w	r1, r3, #234881024	; 0xe000000
 80025ca:	4281      	cmp	r1, r0
 80025cc:	d104      	bne.n	80025d8 <HAL_RCC_OscConfig+0x4a4>
 80025ce:	6c61      	ldr	r1, [r4, #68]	; 0x44
 80025d0:	f003 4360 	and.w	r3, r3, #3758096384	; 0xe0000000
 80025d4:	428b      	cmp	r3, r1
 80025d6:	d03f      	beq.n	8002658 <HAL_RCC_OscConfig+0x524>
 80025d8:	2a0c      	cmp	r2, #12
 80025da:	f43f adae 	beq.w	800213a <HAL_RCC_OscConfig+0x6>
 80025de:	f04f 45b0 	mov.w	r5, #1476395008	; 0x58000000
 80025e2:	682b      	ldr	r3, [r5, #0]
 80025e4:	015e      	lsls	r6, r3, #5
 80025e6:	f53f ada8 	bmi.w	800213a <HAL_RCC_OscConfig+0x6>
 80025ea:	682b      	ldr	r3, [r5, #0]
 80025ec:	f023 7380 	bic.w	r3, r3, #16777216	; 0x1000000
 80025f0:	602b      	str	r3, [r5, #0]
 80025f2:	f7ff f9fb 	bl	80019ec <HAL_GetTick>
 80025f6:	4606      	mov	r6, r0
 80025f8:	682b      	ldr	r3, [r5, #0]
 80025fa:	0198      	lsls	r0, r3, #6
 80025fc:	d426      	bmi.n	800264c <HAL_RCC_OscConfig+0x518>
 80025fe:	e9d4 320c 	ldrd	r3, r2, [r4, #48]	; 0x30
 8002602:	68e9      	ldr	r1, [r5, #12]
 8002604:	4313      	orrs	r3, r2
 8002606:	4a2d      	ldr	r2, [pc, #180]	; (80026bc <HAL_RCC_OscConfig+0x588>)
 8002608:	400a      	ands	r2, r1
 800260a:	4313      	orrs	r3, r2
 800260c:	6be2      	ldr	r2, [r4, #60]	; 0x3c
 800260e:	4313      	orrs	r3, r2
 8002610:	6c22      	ldr	r2, [r4, #64]	; 0x40
 8002612:	4313      	orrs	r3, r2
 8002614:	6c62      	ldr	r2, [r4, #68]	; 0x44
 8002616:	4313      	orrs	r3, r2
 8002618:	6ba2      	ldr	r2, [r4, #56]	; 0x38
 800261a:	ea43 2302 	orr.w	r3, r3, r2, lsl #8
 800261e:	60eb      	str	r3, [r5, #12]
 8002620:	682b      	ldr	r3, [r5, #0]
 8002622:	f043 7380 	orr.w	r3, r3, #16777216	; 0x1000000
 8002626:	602b      	str	r3, [r5, #0]
 8002628:	68eb      	ldr	r3, [r5, #12]
 800262a:	f043 5380 	orr.w	r3, r3, #268435456	; 0x10000000
 800262e:	60eb      	str	r3, [r5, #12]
 8002630:	f7ff f9dc 	bl	80019ec <HAL_GetTick>
 8002634:	f04f 45b0 	mov.w	r5, #1476395008	; 0x58000000
 8002638:	4604      	mov	r4, r0
 800263a:	682b      	ldr	r3, [r5, #0]
 800263c:	0199      	lsls	r1, r3, #6
 800263e:	d4a3      	bmi.n	8002588 <HAL_RCC_OscConfig+0x454>
 8002640:	f7ff f9d4 	bl	80019ec <HAL_GetTick>
 8002644:	1b00      	subs	r0, r0, r4
 8002646:	2802      	cmp	r0, #2
 8002648:	d9f7      	bls.n	800263a <HAL_RCC_OscConfig+0x506>
 800264a:	e62b      	b.n	80022a4 <HAL_RCC_OscConfig+0x170>
 800264c:	f7ff f9ce 	bl	80019ec <HAL_GetTick>
 8002650:	1b80      	subs	r0, r0, r6
 8002652:	2802      	cmp	r0, #2
 8002654:	d9d0      	bls.n	80025f8 <HAL_RCC_OscConfig+0x4c4>
 8002656:	e625      	b.n	80022a4 <HAL_RCC_OscConfig+0x170>
 8002658:	682b      	ldr	r3, [r5, #0]
 800265a:	019a      	lsls	r2, r3, #6
 800265c:	d494      	bmi.n	8002588 <HAL_RCC_OscConfig+0x454>
 800265e:	682b      	ldr	r3, [r5, #0]
 8002660:	f043 7380 	orr.w	r3, r3, #16777216	; 0x1000000
 8002664:	602b      	str	r3, [r5, #0]
 8002666:	68eb      	ldr	r3, [r5, #12]
 8002668:	f043 5380 	orr.w	r3, r3, #268435456	; 0x10000000
 800266c:	60eb      	str	r3, [r5, #12]
 800266e:	f7ff f9bd 	bl	80019ec <HAL_GetTick>
 8002672:	4604      	mov	r4, r0
 8002674:	682b      	ldr	r3, [r5, #0]
 8002676:	019b      	lsls	r3, r3, #6
 8002678:	d486      	bmi.n	8002588 <HAL_RCC_OscConfig+0x454>
 800267a:	f7ff f9b7 	bl	80019ec <HAL_GetTick>
 800267e:	1b00      	subs	r0, r0, r4
 8002680:	2802      	cmp	r0, #2
 8002682:	d9f7      	bls.n	8002674 <HAL_RCC_OscConfig+0x540>
 8002684:	e60e      	b.n	80022a4 <HAL_RCC_OscConfig+0x170>
 8002686:	2a0c      	cmp	r2, #12
 8002688:	f43f ad57 	beq.w	800213a <HAL_RCC_OscConfig+0x6>
 800268c:	682b      	ldr	r3, [r5, #0]
 800268e:	f023 7380 	bic.w	r3, r3, #16777216	; 0x1000000
 8002692:	602b      	str	r3, [r5, #0]
 8002694:	f7ff f9aa 	bl	80019ec <HAL_GetTick>
 8002698:	4604      	mov	r4, r0
 800269a:	682b      	ldr	r3, [r5, #0]
 800269c:	f013 7300 	ands.w	r3, r3, #33554432	; 0x2000000
 80026a0:	d104      	bne.n	80026ac <HAL_RCC_OscConfig+0x578>
 80026a2:	68e9      	ldr	r1, [r5, #12]
 80026a4:	4a06      	ldr	r2, [pc, #24]	; (80026c0 <HAL_RCC_OscConfig+0x58c>)
 80026a6:	400a      	ands	r2, r1
 80026a8:	60ea      	str	r2, [r5, #12]
 80026aa:	e76d      	b.n	8002588 <HAL_RCC_OscConfig+0x454>
 80026ac:	f7ff f99e 	bl	80019ec <HAL_GetTick>
 80026b0:	1b00      	subs	r0, r0, r4
 80026b2:	2802      	cmp	r0, #2
 80026b4:	d9f1      	bls.n	800269a <HAL_RCC_OscConfig+0x566>
 80026b6:	e5f5      	b.n	80022a4 <HAL_RCC_OscConfig+0x170>
 80026b8:	58000400 	.word	0x58000400
 80026bc:	11c1808c 	.word	0x11c1808c
 80026c0:	eefefffc 	.word	0xeefefffc

080026c4 <HAL_RCC_ClockConfig>:
 80026c4:	e92d 41f0 	stmdb	sp!, {r4, r5, r6, r7, r8, lr}
 80026c8:	460d      	mov	r5, r1
 80026ca:	4604      	mov	r4, r0
 80026cc:	b910      	cbnz	r0, 80026d4 <HAL_RCC_ClockConfig+0x10>
 80026ce:	2001      	movs	r0, #1
 80026d0:	e8bd 81f0 	ldmia.w	sp!, {r4, r5, r6, r7, r8, pc}
 80026d4:	4e79      	ldr	r6, [pc, #484]	; (80028bc <HAL_RCC_ClockConfig+0x1f8>)
 80026d6:	6833      	ldr	r3, [r6, #0]
 80026d8:	f003 0307 	and.w	r3, r3, #7
 80026dc:	428b      	cmp	r3, r1
 80026de:	d316      	bcc.n	800270e <HAL_RCC_ClockConfig+0x4a>
 80026e0:	6823      	ldr	r3, [r4, #0]
 80026e2:	079a      	lsls	r2, r3, #30
 80026e4:	d527      	bpl.n	8002736 <HAL_RCC_ClockConfig+0x72>
 80026e6:	f04f 47b0 	mov.w	r7, #1476395008	; 0x58000000
 80026ea:	68a2      	ldr	r2, [r4, #8]
 80026ec:	68bb      	ldr	r3, [r7, #8]
 80026ee:	f023 03f0 	bic.w	r3, r3, #240	; 0xf0
 80026f2:	4313      	orrs	r3, r2
 80026f4:	60bb      	str	r3, [r7, #8]
 80026f6:	f7ff f979 	bl	80019ec <HAL_GetTick>
 80026fa:	4606      	mov	r6, r0
 80026fc:	68bb      	ldr	r3, [r7, #8]
 80026fe:	03db      	lsls	r3, r3, #15
 8002700:	d419      	bmi.n	8002736 <HAL_RCC_ClockConfig+0x72>
 8002702:	f7ff f973 	bl	80019ec <HAL_GetTick>
 8002706:	1b83      	subs	r3, r0, r6
 8002708:	2b02      	cmp	r3, #2
 800270a:	d9f7      	bls.n	80026fc <HAL_RCC_ClockConfig+0x38>
 800270c:	e011      	b.n	8002732 <HAL_RCC_ClockConfig+0x6e>
 800270e:	6833      	ldr	r3, [r6, #0]
 8002710:	f023 0307 	bic.w	r3, r3, #7
 8002714:	430b      	orrs	r3, r1
 8002716:	6033      	str	r3, [r6, #0]
 8002718:	f7ff f968 	bl	80019ec <HAL_GetTick>
 800271c:	4607      	mov	r7, r0
 800271e:	6833      	ldr	r3, [r6, #0]
 8002720:	f003 0307 	and.w	r3, r3, #7
 8002724:	42ab      	cmp	r3, r5
 8002726:	d0db      	beq.n	80026e0 <HAL_RCC_ClockConfig+0x1c>
 8002728:	f7ff f960 	bl	80019ec <HAL_GetTick>
 800272c:	1bc0      	subs	r0, r0, r7
 800272e:	2802      	cmp	r0, #2
 8002730:	d9f5      	bls.n	800271e <HAL_RCC_ClockConfig+0x5a>
 8002732:	2003      	movs	r0, #3
 8002734:	e7cc      	b.n	80026d0 <HAL_RCC_ClockConfig+0xc>
 8002736:	6823      	ldr	r3, [r4, #0]
 8002738:	0698      	lsls	r0, r3, #26
 800273a:	d516      	bpl.n	800276a <HAL_RCC_ClockConfig+0xa6>
 800273c:	f04f 47b0 	mov.w	r7, #1476395008	; 0x58000000
 8002740:	6962      	ldr	r2, [r4, #20]
 8002742:	f8d7 3108 	ldr.w	r3, [r7, #264]	; 0x108
 8002746:	f023 03f0 	bic.w	r3, r3, #240	; 0xf0
 800274a:	4313      	orrs	r3, r2
 800274c:	f8c7 3108 	str.w	r3, [r7, #264]	; 0x108
 8002750:	f7ff f94c 	bl	80019ec <HAL_GetTick>
 8002754:	4606      	mov	r6, r0
 8002756:	f8d7 3108 	ldr.w	r3, [r7, #264]	; 0x108
 800275a:	0399      	lsls	r1, r3, #14
 800275c:	d405      	bmi.n	800276a <HAL_RCC_ClockConfig+0xa6>
 800275e:	f7ff f945 	bl	80019ec <HAL_GetTick>
 8002762:	1b83      	subs	r3, r0, r6
 8002764:	2b02      	cmp	r3, #2
 8002766:	d9f6      	bls.n	8002756 <HAL_RCC_ClockConfig+0x92>
 8002768:	e7e3      	b.n	8002732 <HAL_RCC_ClockConfig+0x6e>
 800276a:	6823      	ldr	r3, [r4, #0]
 800276c:	065a      	lsls	r2, r3, #25
 800276e:	d517      	bpl.n	80027a0 <HAL_RCC_ClockConfig+0xdc>
 8002770:	f04f 47b0 	mov.w	r7, #1476395008	; 0x58000000
 8002774:	69a2      	ldr	r2, [r4, #24]
 8002776:	f8d7 3108 	ldr.w	r3, [r7, #264]	; 0x108
 800277a:	f023 030f 	bic.w	r3, r3, #15
 800277e:	ea43 1312 	orr.w	r3, r3, r2, lsr #4
 8002782:	f8c7 3108 	str.w	r3, [r7, #264]	; 0x108
 8002786:	f7ff f931 	bl	80019ec <HAL_GetTick>
 800278a:	4606      	mov	r6, r0
 800278c:	f8d7 3108 	ldr.w	r3, [r7, #264]	; 0x108
 8002790:	03db      	lsls	r3, r3, #15
 8002792:	d405      	bmi.n	80027a0 <HAL_RCC_ClockConfig+0xdc>
 8002794:	f7ff f92a 	bl	80019ec <HAL_GetTick>
 8002798:	1b83      	subs	r3, r0, r6
 800279a:	2b02      	cmp	r3, #2
 800279c:	d9f6      	bls.n	800278c <HAL_RCC_ClockConfig+0xc8>
 800279e:	e7c8      	b.n	8002732 <HAL_RCC_ClockConfig+0x6e>
 80027a0:	6823      	ldr	r3, [r4, #0]
 80027a2:	075e      	lsls	r6, r3, #29
 80027a4:	d513      	bpl.n	80027ce <HAL_RCC_ClockConfig+0x10a>
 80027a6:	f04f 47b0 	mov.w	r7, #1476395008	; 0x58000000
 80027aa:	68e2      	ldr	r2, [r4, #12]
 80027ac:	68bb      	ldr	r3, [r7, #8]
 80027ae:	f423 63e0 	bic.w	r3, r3, #1792	; 0x700
 80027b2:	4313      	orrs	r3, r2
 80027b4:	60bb      	str	r3, [r7, #8]
 80027b6:	f7ff f919 	bl	80019ec <HAL_GetTick>
 80027ba:	4606      	mov	r6, r0
 80027bc:	68bb      	ldr	r3, [r7, #8]
 80027be:	0398      	lsls	r0, r3, #14
 80027c0:	d405      	bmi.n	80027ce <HAL_RCC_ClockConfig+0x10a>
 80027c2:	f7ff f913 	bl	80019ec <HAL_GetTick>
 80027c6:	1b83      	subs	r3, r0, r6
 80027c8:	2b02      	cmp	r3, #2
 80027ca:	d9f7      	bls.n	80027bc <HAL_RCC_ClockConfig+0xf8>
 80027cc:	e7b1      	b.n	8002732 <HAL_RCC_ClockConfig+0x6e>
 80027ce:	6823      	ldr	r3, [r4, #0]
 80027d0:	0719      	lsls	r1, r3, #28
 80027d2:	d514      	bpl.n	80027fe <HAL_RCC_ClockConfig+0x13a>
 80027d4:	f04f 47b0 	mov.w	r7, #1476395008	; 0x58000000
 80027d8:	6922      	ldr	r2, [r4, #16]
 80027da:	68bb      	ldr	r3, [r7, #8]
 80027dc:	f423 5360 	bic.w	r3, r3, #14336	; 0x3800
 80027e0:	ea43 03c2 	orr.w	r3, r3, r2, lsl #3
 80027e4:	60bb      	str	r3, [r7, #8]
 80027e6:	f7ff f901 	bl	80019ec <HAL_GetTick>
 80027ea:	4606      	mov	r6, r0
 80027ec:	68bb      	ldr	r3, [r7, #8]
 80027ee:	035a      	lsls	r2, r3, #13
 80027f0:	d405      	bmi.n	80027fe <HAL_RCC_ClockConfig+0x13a>
 80027f2:	f7ff f8fb 	bl	80019ec <HAL_GetTick>
 80027f6:	1b83      	subs	r3, r0, r6
 80027f8:	2b02      	cmp	r3, #2
 80027fa:	d9f7      	bls.n	80027ec <HAL_RCC_ClockConfig+0x128>
 80027fc:	e799      	b.n	8002732 <HAL_RCC_ClockConfig+0x6e>
 80027fe:	6823      	ldr	r3, [r4, #0]
 8002800:	07db      	lsls	r3, r3, #31
 8002802:	d40f      	bmi.n	8002824 <HAL_RCC_ClockConfig+0x160>
 8002804:	4c2d      	ldr	r4, [pc, #180]	; (80028bc <HAL_RCC_ClockConfig+0x1f8>)
 8002806:	6823      	ldr	r3, [r4, #0]
 8002808:	f003 0307 	and.w	r3, r3, #7
 800280c:	42ab      	cmp	r3, r5
 800280e:	d841      	bhi.n	8002894 <HAL_RCC_ClockConfig+0x1d0>
 8002810:	f7ff fc80 	bl	8002114 <HAL_RCC_GetHCLKFreq>
 8002814:	4b2a      	ldr	r3, [pc, #168]	; (80028c0 <HAL_RCC_ClockConfig+0x1fc>)
 8002816:	6018      	str	r0, [r3, #0]
 8002818:	f7ff f8ee 	bl	80019f8 <HAL_GetTickPrio>
 800281c:	e8bd 41f0 	ldmia.w	sp!, {r4, r5, r6, r7, r8, lr}
 8002820:	f7ff b89c 	b.w	800195c <HAL_InitTick>
 8002824:	6863      	ldr	r3, [r4, #4]
 8002826:	2b02      	cmp	r3, #2
 8002828:	d120      	bne.n	800286c <HAL_RCC_ClockConfig+0x1a8>
 800282a:	f04f 43b0 	mov.w	r3, #1476395008	; 0x58000000
 800282e:	681b      	ldr	r3, [r3, #0]
 8002830:	f413 3f00 	tst.w	r3, #131072	; 0x20000
 8002834:	f43f af4b 	beq.w	80026ce <HAL_RCC_ClockConfig+0xa>
 8002838:	f04f 46b0 	mov.w	r6, #1476395008	; 0x58000000
 800283c:	6862      	ldr	r2, [r4, #4]
 800283e:	68b3      	ldr	r3, [r6, #8]
 8002840:	f023 0303 	bic.w	r3, r3, #3
 8002844:	4313      	orrs	r3, r2
 8002846:	60b3      	str	r3, [r6, #8]
 8002848:	f7ff f8d0 	bl	80019ec <HAL_GetTick>
 800284c:	f241 3888 	movw	r8, #5000	; 0x1388
 8002850:	4607      	mov	r7, r0
 8002852:	68b3      	ldr	r3, [r6, #8]
 8002854:	6862      	ldr	r2, [r4, #4]
 8002856:	f003 030c 	and.w	r3, r3, #12
 800285a:	ebb3 0f82 	cmp.w	r3, r2, lsl #2
 800285e:	d0d1      	beq.n	8002804 <HAL_RCC_ClockConfig+0x140>
 8002860:	f7ff f8c4 	bl	80019ec <HAL_GetTick>
 8002864:	1bc0      	subs	r0, r0, r7
 8002866:	4540      	cmp	r0, r8
 8002868:	d9f3      	bls.n	8002852 <HAL_RCC_ClockConfig+0x18e>
 800286a:	e762      	b.n	8002732 <HAL_RCC_ClockConfig+0x6e>
 800286c:	2b03      	cmp	r3, #3
 800286e:	d105      	bne.n	800287c <HAL_RCC_ClockConfig+0x1b8>
 8002870:	f04f 43b0 	mov.w	r3, #1476395008	; 0x58000000
 8002874:	681b      	ldr	r3, [r3, #0]
 8002876:	f013 7f00 	tst.w	r3, #33554432	; 0x2000000
 800287a:	e7db      	b.n	8002834 <HAL_RCC_ClockConfig+0x170>
 800287c:	b923      	cbnz	r3, 8002888 <HAL_RCC_ClockConfig+0x1c4>
 800287e:	f7ff fb6c 	bl	8001f5a <LL_RCC_MSI_IsReady>
 8002882:	2800      	cmp	r0, #0
 8002884:	d1d8      	bne.n	8002838 <HAL_RCC_ClockConfig+0x174>
 8002886:	e722      	b.n	80026ce <HAL_RCC_ClockConfig+0xa>
 8002888:	f04f 43b0 	mov.w	r3, #1476395008	; 0x58000000
 800288c:	681b      	ldr	r3, [r3, #0]
 800288e:	f413 6f80 	tst.w	r3, #1024	; 0x400
 8002892:	e7cf      	b.n	8002834 <HAL_RCC_ClockConfig+0x170>
 8002894:	6823      	ldr	r3, [r4, #0]
 8002896:	f023 0307 	bic.w	r3, r3, #7
 800289a:	432b      	orrs	r3, r5
 800289c:	6023      	str	r3, [r4, #0]
 800289e:	f7ff f8a5 	bl	80019ec <HAL_GetTick>
 80028a2:	4606      	mov	r6, r0
 80028a4:	6823      	ldr	r3, [r4, #0]
 80028a6:	f003 0307 	and.w	r3, r3, #7
 80028aa:	42ab      	cmp	r3, r5
 80028ac:	d0b0      	beq.n	8002810 <HAL_RCC_ClockConfig+0x14c>
 80028ae:	f7ff f89d 	bl	80019ec <HAL_GetTick>
 80028b2:	1b80      	subs	r0, r0, r6
 80028b4:	2802      	cmp	r0, #2
 80028b6:	d9f5      	bls.n	80028a4 <HAL_RCC_ClockConfig+0x1e0>
 80028b8:	e73b      	b.n	8002732 <HAL_RCC_ClockConfig+0x6e>
 80028ba:	bf00      	nop
 80028bc:	58004000 	.word	0x58004000
 80028c0:	20000024 	.word	0x20000024

080028c4 <LL_RCC_LSE_IsReady>:
 80028c4:	f04f 43b0 	mov.w	r3, #1476395008	; 0x58000000
 80028c8:	f8d3 0090 	ldr.w	r0, [r3, #144]	; 0x90
 80028cc:	f3c0 0040 	ubfx	r0, r0, #1, #1
 80028d0:	4770      	bx	lr

080028d2 <LL_RCC_SetI2CClockSource>:
 80028d2:	f04f 41b0 	mov.w	r1, #1476395008	; 0x58000000
 80028d6:	0902      	lsrs	r2, r0, #4
 80028d8:	f8d1 3088 	ldr.w	r3, [r1, #136]	; 0x88
 80028dc:	f402 227f 	and.w	r2, r2, #1044480	; 0xff000
 80028e0:	0100      	lsls	r0, r0, #4
 80028e2:	ea23 0302 	bic.w	r3, r3, r2
 80028e6:	f400 207f 	and.w	r0, r0, #1044480	; 0xff000
 80028ea:	4318      	orrs	r0, r3
 80028ec:	f8c1 0088 	str.w	r0, [r1, #136]	; 0x88
 80028f0:	4770      	bx	lr

080028f2 <LL_RCC_PLLSAI1_Enable>:
 80028f2:	f04f 42b0 	mov.w	r2, #1476395008	; 0x58000000
 80028f6:	6813      	ldr	r3, [r2, #0]
 80028f8:	f043 6380 	orr.w	r3, r3, #67108864	; 0x4000000
 80028fc:	6013      	str	r3, [r2, #0]
 80028fe:	4770      	bx	lr

08002900 <LL_RCC_PLLSAI1_Disable>:
 8002900:	f04f 42b0 	mov.w	r2, #1476395008	; 0x58000000
 8002904:	6813      	ldr	r3, [r2, #0]
 8002906:	f023 6380 	bic.w	r3, r3, #67108864	; 0x4000000
 800290a:	6013      	str	r3, [r2, #0]
 800290c:	4770      	bx	lr

0800290e <LL_RCC_PLLSAI1_IsReady>:
 800290e:	f04f 43b0 	mov.w	r3, #1476395008	; 0x58000000
 8002912:	6818      	ldr	r0, [r3, #0]
 8002914:	f3c0 60c0 	ubfx	r0, r0, #27, #1
 8002918:	4770      	bx	lr

0800291a <HAL_RCCEx_PeriphCLKConfig>:
 800291a:	b5f8      	push	{r3, r4, r5, r6, r7, lr}
 800291c:	6805      	ldr	r5, [r0, #0]
 800291e:	f015 0540 	ands.w	r5, r5, #64	; 0x40
 8002922:	4604      	mov	r4, r0
 8002924:	d00a      	beq.n	800293c <HAL_RCCEx_PeriphCLKConfig+0x22>
 8002926:	6b03      	ldr	r3, [r0, #48]	; 0x30
 8002928:	f5b3 0f80 	cmp.w	r3, #4194304	; 0x400000
 800292c:	f000 80d9 	beq.w	8002ae2 <HAL_RCCEx_PeriphCLKConfig+0x1c8>
 8002930:	f200 80c5 	bhi.w	8002abe <HAL_RCCEx_PeriphCLKConfig+0x1a4>
 8002934:	2b00      	cmp	r3, #0
 8002936:	f000 80db 	beq.w	8002af0 <HAL_RCCEx_PeriphCLKConfig+0x1d6>
 800293a:	2501      	movs	r5, #1
 800293c:	6823      	ldr	r3, [r4, #0]
 800293e:	0518      	lsls	r0, r3, #20
 8002940:	d515      	bpl.n	800296e <HAL_RCCEx_PeriphCLKConfig+0x54>
 8002942:	f04f 46b0 	mov.w	r6, #1476395008	; 0x58000000
 8002946:	6c23      	ldr	r3, [r4, #64]	; 0x40
 8002948:	f8d6 7090 	ldr.w	r7, [r6, #144]	; 0x90
 800294c:	f407 7740 	and.w	r7, r7, #768	; 0x300
 8002950:	42bb      	cmp	r3, r7
 8002952:	d00c      	beq.n	800296e <HAL_RCCEx_PeriphCLKConfig+0x54>
 8002954:	f7ff faea 	bl	8001f2c <HAL_PWR_EnableBkUpAccess>
 8002958:	f8d6 3090 	ldr.w	r3, [r6, #144]	; 0x90
 800295c:	2f00      	cmp	r7, #0
 800295e:	f040 80fb 	bne.w	8002b58 <HAL_RCCEx_PeriphCLKConfig+0x23e>
 8002962:	6c22      	ldr	r2, [r4, #64]	; 0x40
 8002964:	f423 7340 	bic.w	r3, r3, #768	; 0x300
 8002968:	4313      	orrs	r3, r2
 800296a:	f8c6 3090 	str.w	r3, [r6, #144]	; 0x90
 800296e:	6823      	ldr	r3, [r4, #0]
 8002970:	07da      	lsls	r2, r3, #31
 8002972:	d509      	bpl.n	8002988 <HAL_RCCEx_PeriphCLKConfig+0x6e>
 8002974:	f04f 41b0 	mov.w	r1, #1476395008	; 0x58000000
 8002978:	69a0      	ldr	r0, [r4, #24]
 800297a:	f8d1 2088 	ldr.w	r2, [r1, #136]	; 0x88
 800297e:	f022 0203 	bic.w	r2, r2, #3
 8002982:	4302      	orrs	r2, r0
 8002984:	f8c1 2088 	str.w	r2, [r1, #136]	; 0x88
 8002988:	079f      	lsls	r7, r3, #30
 800298a:	d509      	bpl.n	80029a0 <HAL_RCCEx_PeriphCLKConfig+0x86>
 800298c:	f04f 41b0 	mov.w	r1, #1476395008	; 0x58000000
 8002990:	69e0      	ldr	r0, [r4, #28]
 8002992:	f8d1 2088 	ldr.w	r2, [r1, #136]	; 0x88
 8002996:	f422 6240 	bic.w	r2, r2, #3072	; 0xc00
 800299a:	4302      	orrs	r2, r0
 800299c:	f8c1 2088 	str.w	r2, [r1, #136]	; 0x88
 80029a0:	06de      	lsls	r6, r3, #27
 80029a2:	d50c      	bpl.n	80029be <HAL_RCCEx_PeriphCLKConfig+0xa4>
 80029a4:	6aa6      	ldr	r6, [r4, #40]	; 0x28
 80029a6:	f04f 40b0 	mov.w	r0, #1476395008	; 0x58000000
 80029aa:	0c31      	lsrs	r1, r6, #16
 80029ac:	f8d0 2088 	ldr.w	r2, [r0, #136]	; 0x88
 80029b0:	0409      	lsls	r1, r1, #16
 80029b2:	ea22 0201 	bic.w	r2, r2, r1
 80029b6:	ea42 4206 	orr.w	r2, r2, r6, lsl #16
 80029ba:	f8c0 2088 	str.w	r2, [r0, #136]	; 0x88
 80029be:	0698      	lsls	r0, r3, #26
 80029c0:	d50c      	bpl.n	80029dc <HAL_RCCEx_PeriphCLKConfig+0xc2>
 80029c2:	6ae6      	ldr	r6, [r4, #44]	; 0x2c
 80029c4:	f04f 40b0 	mov.w	r0, #1476395008	; 0x58000000
 80029c8:	0c31      	lsrs	r1, r6, #16
 80029ca:	f8d0 2088 	ldr.w	r2, [r0, #136]	; 0x88
 80029ce:	0409      	lsls	r1, r1, #16
 80029d0:	ea22 0201 	bic.w	r2, r2, r1
 80029d4:	ea42 4206 	orr.w	r2, r2, r6, lsl #16
 80029d8:	f8c0 2088 	str.w	r2, [r0, #136]	; 0x88
 80029dc:	0759      	lsls	r1, r3, #29
 80029de:	d502      	bpl.n	80029e6 <HAL_RCCEx_PeriphCLKConfig+0xcc>
 80029e0:	6a20      	ldr	r0, [r4, #32]
 80029e2:	f7ff ff76 	bl	80028d2 <LL_RCC_SetI2CClockSource>
 80029e6:	6823      	ldr	r3, [r4, #0]
 80029e8:	071a      	lsls	r2, r3, #28
 80029ea:	d502      	bpl.n	80029f2 <HAL_RCCEx_PeriphCLKConfig+0xd8>
 80029ec:	6a60      	ldr	r0, [r4, #36]	; 0x24
 80029ee:	f7ff ff70 	bl	80028d2 <LL_RCC_SetI2CClockSource>
 80029f2:	6823      	ldr	r3, [r4, #0]
 80029f4:	05db      	lsls	r3, r3, #23
 80029f6:	d511      	bpl.n	8002a1c <HAL_RCCEx_PeriphCLKConfig+0x102>
 80029f8:	f04f 42b0 	mov.w	r2, #1476395008	; 0x58000000
 80029fc:	6b61      	ldr	r1, [r4, #52]	; 0x34
 80029fe:	f8d2 3088 	ldr.w	r3, [r2, #136]	; 0x88
 8002a02:	f023 6340 	bic.w	r3, r3, #201326592	; 0xc000000
 8002a06:	430b      	orrs	r3, r1
 8002a08:	f1b1 6f00 	cmp.w	r1, #134217728	; 0x8000000
 8002a0c:	f8c2 3088 	str.w	r3, [r2, #136]	; 0x88
 8002a10:	f040 80ca 	bne.w	8002ba8 <HAL_RCCEx_PeriphCLKConfig+0x28e>
 8002a14:	68d3      	ldr	r3, [r2, #12]
 8002a16:	f043 7380 	orr.w	r3, r3, #16777216	; 0x1000000
 8002a1a:	60d3      	str	r3, [r2, #12]
 8002a1c:	6826      	ldr	r6, [r4, #0]
 8002a1e:	05b7      	lsls	r7, r6, #22
 8002a20:	d51a      	bpl.n	8002a58 <HAL_RCCEx_PeriphCLKConfig+0x13e>
 8002a22:	6ba2      	ldr	r2, [r4, #56]	; 0x38
 8002a24:	f1b2 4f00 	cmp.w	r2, #2147483648	; 0x80000000
 8002a28:	f04f 43b0 	mov.w	r3, #1476395008	; 0x58000000
 8002a2c:	d003      	beq.n	8002a36 <HAL_RCCEx_PeriphCLKConfig+0x11c>
 8002a2e:	f032 4180 	bics.w	r1, r2, #1073741824	; 0x40000000
 8002a32:	f040 80f1 	bne.w	8002c18 <HAL_RCCEx_PeriphCLKConfig+0x2fe>
 8002a36:	f8d3 1088 	ldr.w	r1, [r3, #136]	; 0x88
 8002a3a:	f021 4140 	bic.w	r1, r1, #3221225472	; 0xc0000000
 8002a3e:	4311      	orrs	r1, r2
 8002a40:	f1b2 5fc0 	cmp.w	r2, #402653184	; 0x18000000
 8002a44:	bf08      	it	eq
 8002a46:	f04f 42b0 	moveq.w	r2, #1476395008	; 0x58000000
 8002a4a:	f8c3 1088 	str.w	r1, [r3, #136]	; 0x88
 8002a4e:	bf02      	ittt	eq
 8002a50:	68d3      	ldreq	r3, [r2, #12]
 8002a52:	f043 7380 	orreq.w	r3, r3, #16777216	; 0x1000000
 8002a56:	60d3      	streq	r3, [r2, #12]
 8002a58:	0570      	lsls	r0, r6, #21
 8002a5a:	d511      	bpl.n	8002a80 <HAL_RCCEx_PeriphCLKConfig+0x166>
 8002a5c:	f04f 42b0 	mov.w	r2, #1476395008	; 0x58000000
 8002a60:	6be1      	ldr	r1, [r4, #60]	; 0x3c
 8002a62:	f8d2 3088 	ldr.w	r3, [r2, #136]	; 0x88
 8002a66:	f023 5340 	bic.w	r3, r3, #805306368	; 0x30000000
 8002a6a:	430b      	orrs	r3, r1
 8002a6c:	f1b1 5f00 	cmp.w	r1, #536870912	; 0x20000000
 8002a70:	f8c2 3088 	str.w	r3, [r2, #136]	; 0x88
 8002a74:	f040 80de 	bne.w	8002c34 <HAL_RCCEx_PeriphCLKConfig+0x31a>
 8002a78:	68d3      	ldr	r3, [r2, #12]
 8002a7a:	f443 3380 	orr.w	r3, r3, #65536	; 0x10000
 8002a7e:	60d3      	str	r3, [r2, #12]
 8002a80:	6822      	ldr	r2, [r4, #0]
 8002a82:	04d1      	lsls	r1, r2, #19
 8002a84:	d509      	bpl.n	8002a9a <HAL_RCCEx_PeriphCLKConfig+0x180>
 8002a86:	f04f 41b0 	mov.w	r1, #1476395008	; 0x58000000
 8002a8a:	6c60      	ldr	r0, [r4, #68]	; 0x44
 8002a8c:	f8d1 3094 	ldr.w	r3, [r1, #148]	; 0x94
 8002a90:	f423 4340 	bic.w	r3, r3, #49152	; 0xc000
 8002a94:	4303      	orrs	r3, r0
 8002a96:	f8c1 3094 	str.w	r3, [r1, #148]	; 0x94
 8002a9a:	0493      	lsls	r3, r2, #18
 8002a9c:	d50d      	bpl.n	8002aba <HAL_RCCEx_PeriphCLKConfig+0x1a0>
 8002a9e:	f04f 42b0 	mov.w	r2, #1476395008	; 0x58000000
 8002aa2:	6ce1      	ldr	r1, [r4, #76]	; 0x4c
 8002aa4:	6a53      	ldr	r3, [r2, #36]	; 0x24
 8002aa6:	f023 0330 	bic.w	r3, r3, #48	; 0x30
 8002aaa:	430b      	orrs	r3, r1
 8002aac:	6253      	str	r3, [r2, #36]	; 0x24
 8002aae:	6a53      	ldr	r3, [r2, #36]	; 0x24
 8002ab0:	6ca1      	ldr	r1, [r4, #72]	; 0x48
 8002ab2:	f023 0303 	bic.w	r3, r3, #3
 8002ab6:	430b      	orrs	r3, r1
 8002ab8:	6253      	str	r3, [r2, #36]	; 0x24
 8002aba:	4628      	mov	r0, r5
 8002abc:	bdf8      	pop	{r3, r4, r5, r6, r7, pc}
 8002abe:	f423 0380 	bic.w	r3, r3, #4194304	; 0x400000
 8002ac2:	f5b3 0f00 	cmp.w	r3, #8388608	; 0x800000
 8002ac6:	f47f af38 	bne.w	800293a <HAL_RCCEx_PeriphCLKConfig+0x20>
 8002aca:	f04f 42b0 	mov.w	r2, #1476395008	; 0x58000000
 8002ace:	6b21      	ldr	r1, [r4, #48]	; 0x30
 8002ad0:	f8d2 3088 	ldr.w	r3, [r2, #136]	; 0x88
 8002ad4:	f423 0340 	bic.w	r3, r3, #12582912	; 0xc00000
 8002ad8:	430b      	orrs	r3, r1
 8002ada:	f8c2 3088 	str.w	r3, [r2, #136]	; 0x88
 8002ade:	2500      	movs	r5, #0
 8002ae0:	e72c      	b.n	800293c <HAL_RCCEx_PeriphCLKConfig+0x22>
 8002ae2:	f04f 42b0 	mov.w	r2, #1476395008	; 0x58000000
 8002ae6:	68d3      	ldr	r3, [r2, #12]
 8002ae8:	f443 3380 	orr.w	r3, r3, #65536	; 0x10000
 8002aec:	60d3      	str	r3, [r2, #12]
 8002aee:	e7ec      	b.n	8002aca <HAL_RCCEx_PeriphCLKConfig+0x1b0>
 8002af0:	f7ff ff06 	bl	8002900 <LL_RCC_PLLSAI1_Disable>
 8002af4:	f7fe ff7a 	bl	80019ec <HAL_GetTick>
 8002af8:	4605      	mov	r5, r0
 8002afa:	f7ff ff08 	bl	800290e <LL_RCC_PLLSAI1_IsReady>
 8002afe:	b9a0      	cbnz	r0, 8002b2a <HAL_RCCEx_PeriphCLKConfig+0x210>
 8002b00:	f04f 42b0 	mov.w	r2, #1476395008	; 0x58000000
 8002b04:	6861      	ldr	r1, [r4, #4]
 8002b06:	6913      	ldr	r3, [r2, #16]
 8002b08:	f423 43fe 	bic.w	r3, r3, #32512	; 0x7f00
 8002b0c:	ea43 2301 	orr.w	r3, r3, r1, lsl #8
 8002b10:	6113      	str	r3, [r2, #16]
 8002b12:	6913      	ldr	r3, [r2, #16]
 8002b14:	68a1      	ldr	r1, [r4, #8]
 8002b16:	f423 1378 	bic.w	r3, r3, #4063232	; 0x3e0000
 8002b1a:	430b      	orrs	r3, r1
 8002b1c:	6113      	str	r3, [r2, #16]
 8002b1e:	f7ff fee8 	bl	80028f2 <LL_RCC_PLLSAI1_Enable>
 8002b22:	f7fe ff63 	bl	80019ec <HAL_GetTick>
 8002b26:	4605      	mov	r5, r0
 8002b28:	e00b      	b.n	8002b42 <HAL_RCCEx_PeriphCLKConfig+0x228>
 8002b2a:	f7fe ff5f 	bl	80019ec <HAL_GetTick>
 8002b2e:	1b40      	subs	r0, r0, r5
 8002b30:	2802      	cmp	r0, #2
 8002b32:	d9e2      	bls.n	8002afa <HAL_RCCEx_PeriphCLKConfig+0x1e0>
 8002b34:	2503      	movs	r5, #3
 8002b36:	e701      	b.n	800293c <HAL_RCCEx_PeriphCLKConfig+0x22>
 8002b38:	f7fe ff58 	bl	80019ec <HAL_GetTick>
 8002b3c:	1b40      	subs	r0, r0, r5
 8002b3e:	2802      	cmp	r0, #2
 8002b40:	d8f8      	bhi.n	8002b34 <HAL_RCCEx_PeriphCLKConfig+0x21a>
 8002b42:	f7ff fee4 	bl	800290e <LL_RCC_PLLSAI1_IsReady>
 8002b46:	2801      	cmp	r0, #1
 8002b48:	d1f6      	bne.n	8002b38 <HAL_RCCEx_PeriphCLKConfig+0x21e>
 8002b4a:	f04f 42b0 	mov.w	r2, #1476395008	; 0x58000000
 8002b4e:	6961      	ldr	r1, [r4, #20]
 8002b50:	6913      	ldr	r3, [r2, #16]
 8002b52:	430b      	orrs	r3, r1
 8002b54:	6113      	str	r3, [r2, #16]
 8002b56:	e7b8      	b.n	8002aca <HAL_RCCEx_PeriphCLKConfig+0x1b0>
 8002b58:	f8d6 2090 	ldr.w	r2, [r6, #144]	; 0x90
 8002b5c:	f442 3280 	orr.w	r2, r2, #65536	; 0x10000
 8002b60:	f8c6 2090 	str.w	r2, [r6, #144]	; 0x90
 8002b64:	f8d6 2090 	ldr.w	r2, [r6, #144]	; 0x90
 8002b68:	f422 3280 	bic.w	r2, r2, #65536	; 0x10000
 8002b6c:	f8c6 2090 	str.w	r2, [r6, #144]	; 0x90
 8002b70:	6c22      	ldr	r2, [r4, #64]	; 0x40
 8002b72:	f423 7340 	bic.w	r3, r3, #768	; 0x300
 8002b76:	4313      	orrs	r3, r2
 8002b78:	f8c6 3090 	str.w	r3, [r6, #144]	; 0x90
 8002b7c:	f8d6 3090 	ldr.w	r3, [r6, #144]	; 0x90
 8002b80:	07d9      	lsls	r1, r3, #31
 8002b82:	f57f aef4 	bpl.w	800296e <HAL_RCCEx_PeriphCLKConfig+0x54>
 8002b86:	f7fe ff31 	bl	80019ec <HAL_GetTick>
 8002b8a:	f241 3788 	movw	r7, #5000	; 0x1388
 8002b8e:	4606      	mov	r6, r0
 8002b90:	f7ff fe98 	bl	80028c4 <LL_RCC_LSE_IsReady>
 8002b94:	2801      	cmp	r0, #1
 8002b96:	f43f aeea 	beq.w	800296e <HAL_RCCEx_PeriphCLKConfig+0x54>
 8002b9a:	f7fe ff27 	bl	80019ec <HAL_GetTick>
 8002b9e:	1b80      	subs	r0, r0, r6
 8002ba0:	42b8      	cmp	r0, r7
 8002ba2:	d9f5      	bls.n	8002b90 <HAL_RCCEx_PeriphCLKConfig+0x276>
 8002ba4:	2503      	movs	r5, #3
 8002ba6:	e6e2      	b.n	800296e <HAL_RCCEx_PeriphCLKConfig+0x54>
 8002ba8:	f1b1 6f80 	cmp.w	r1, #67108864	; 0x4000000
 8002bac:	f47f af36 	bne.w	8002a1c <HAL_RCCEx_PeriphCLKConfig+0x102>
 8002bb0:	f7ff fea6 	bl	8002900 <LL_RCC_PLLSAI1_Disable>
 8002bb4:	f7fe ff1a 	bl	80019ec <HAL_GetTick>
 8002bb8:	4606      	mov	r6, r0
 8002bba:	f7ff fea8 	bl	800290e <LL_RCC_PLLSAI1_IsReady>
 8002bbe:	b9a0      	cbnz	r0, 8002bea <HAL_RCCEx_PeriphCLKConfig+0x2d0>
 8002bc0:	f04f 42b0 	mov.w	r2, #1476395008	; 0x58000000
 8002bc4:	6861      	ldr	r1, [r4, #4]
 8002bc6:	6913      	ldr	r3, [r2, #16]
 8002bc8:	f423 43fe 	bic.w	r3, r3, #32512	; 0x7f00
 8002bcc:	ea43 2301 	orr.w	r3, r3, r1, lsl #8
 8002bd0:	6113      	str	r3, [r2, #16]
 8002bd2:	6913      	ldr	r3, [r2, #16]
 8002bd4:	68e1      	ldr	r1, [r4, #12]
 8002bd6:	f023 6360 	bic.w	r3, r3, #234881024	; 0xe000000
 8002bda:	430b      	orrs	r3, r1
 8002bdc:	6113      	str	r3, [r2, #16]
 8002bde:	f7ff fe88 	bl	80028f2 <LL_RCC_PLLSAI1_Enable>
 8002be2:	f7fe ff03 	bl	80019ec <HAL_GetTick>
 8002be6:	4606      	mov	r6, r0
 8002be8:	e00b      	b.n	8002c02 <HAL_RCCEx_PeriphCLKConfig+0x2e8>
 8002bea:	f7fe feff 	bl	80019ec <HAL_GetTick>
 8002bee:	1b80      	subs	r0, r0, r6
 8002bf0:	2802      	cmp	r0, #2
 8002bf2:	d9e2      	bls.n	8002bba <HAL_RCCEx_PeriphCLKConfig+0x2a0>
 8002bf4:	2503      	movs	r5, #3
 8002bf6:	e711      	b.n	8002a1c <HAL_RCCEx_PeriphCLKConfig+0x102>
 8002bf8:	f7fe fef8 	bl	80019ec <HAL_GetTick>
 8002bfc:	1b80      	subs	r0, r0, r6
 8002bfe:	2802      	cmp	r0, #2
 8002c00:	d8f8      	bhi.n	8002bf4 <HAL_RCCEx_PeriphCLKConfig+0x2da>
 8002c02:	f7ff fe84 	bl	800290e <LL_RCC_PLLSAI1_IsReady>
 8002c06:	2801      	cmp	r0, #1
 8002c08:	d1f6      	bne.n	8002bf8 <HAL_RCCEx_PeriphCLKConfig+0x2de>
 8002c0a:	f04f 42b0 	mov.w	r2, #1476395008	; 0x58000000
 8002c0e:	6961      	ldr	r1, [r4, #20]
 8002c10:	6913      	ldr	r3, [r2, #16]
 8002c12:	430b      	orrs	r3, r1
 8002c14:	6113      	str	r3, [r2, #16]
 8002c16:	e701      	b.n	8002a1c <HAL_RCCEx_PeriphCLKConfig+0x102>
 8002c18:	f8d3 1088 	ldr.w	r1, [r3, #136]	; 0x88
 8002c1c:	f021 4140 	bic.w	r1, r1, #3221225472	; 0xc0000000
 8002c20:	f8c3 1088 	str.w	r1, [r3, #136]	; 0x88
 8002c24:	f8d3 0088 	ldr.w	r0, [r3, #136]	; 0x88
 8002c28:	f022 5180 	bic.w	r1, r2, #268435456	; 0x10000000
 8002c2c:	f020 6040 	bic.w	r0, r0, #201326592	; 0xc000000
 8002c30:	4301      	orrs	r1, r0
 8002c32:	e705      	b.n	8002a40 <HAL_RCCEx_PeriphCLKConfig+0x126>
 8002c34:	f1b1 5f80 	cmp.w	r1, #268435456	; 0x10000000
 8002c38:	f47f af22 	bne.w	8002a80 <HAL_RCCEx_PeriphCLKConfig+0x166>
 8002c3c:	f7ff fe60 	bl	8002900 <LL_RCC_PLLSAI1_Disable>
 8002c40:	f7fe fed4 	bl	80019ec <HAL_GetTick>
 8002c44:	4606      	mov	r6, r0
 8002c46:	f7ff fe62 	bl	800290e <LL_RCC_PLLSAI1_IsReady>
 8002c4a:	b9a0      	cbnz	r0, 8002c76 <HAL_RCCEx_PeriphCLKConfig+0x35c>
 8002c4c:	f04f 42b0 	mov.w	r2, #1476395008	; 0x58000000
 8002c50:	6861      	ldr	r1, [r4, #4]
 8002c52:	6913      	ldr	r3, [r2, #16]
 8002c54:	f423 43fe 	bic.w	r3, r3, #32512	; 0x7f00
 8002c58:	ea43 2301 	orr.w	r3, r3, r1, lsl #8
 8002c5c:	6113      	str	r3, [r2, #16]
 8002c5e:	6913      	ldr	r3, [r2, #16]
 8002c60:	6921      	ldr	r1, [r4, #16]
 8002c62:	f023 4360 	bic.w	r3, r3, #3758096384	; 0xe0000000
 8002c66:	430b      	orrs	r3, r1
 8002c68:	6113      	str	r3, [r2, #16]
 8002c6a:	f7ff fe42 	bl	80028f2 <LL_RCC_PLLSAI1_Enable>
 8002c6e:	f7fe febd 	bl	80019ec <HAL_GetTick>
 8002c72:	4606      	mov	r6, r0
 8002c74:	e00b      	b.n	8002c8e <HAL_RCCEx_PeriphCLKConfig+0x374>
 8002c76:	f7fe feb9 	bl	80019ec <HAL_GetTick>
 8002c7a:	1b80      	subs	r0, r0, r6
 8002c7c:	2802      	cmp	r0, #2
 8002c7e:	d9e2      	bls.n	8002c46 <HAL_RCCEx_PeriphCLKConfig+0x32c>
 8002c80:	2503      	movs	r5, #3
 8002c82:	e6fd      	b.n	8002a80 <HAL_RCCEx_PeriphCLKConfig+0x166>
 8002c84:	f7fe feb2 	bl	80019ec <HAL_GetTick>
 8002c88:	1b80      	subs	r0, r0, r6
 8002c8a:	2802      	cmp	r0, #2
 8002c8c:	d8f8      	bhi.n	8002c80 <HAL_RCCEx_PeriphCLKConfig+0x366>
 8002c8e:	f7ff fe3e 	bl	800290e <LL_RCC_PLLSAI1_IsReady>
 8002c92:	2801      	cmp	r0, #1
 8002c94:	d1f6      	bne.n	8002c84 <HAL_RCCEx_PeriphCLKConfig+0x36a>
 8002c96:	f04f 42b0 	mov.w	r2, #1476395008	; 0x58000000
 8002c9a:	6961      	ldr	r1, [r4, #20]
 8002c9c:	6913      	ldr	r3, [r2, #16]
 8002c9e:	430b      	orrs	r3, r1
 8002ca0:	6113      	str	r3, [r2, #16]
 8002ca2:	e6ed      	b.n	8002a80 <HAL_RCCEx_PeriphCLKConfig+0x166>

08002ca4 <HAL_RNG_Init>:
 8002ca4:	b510      	push	{r4, lr}
 8002ca6:	4604      	mov	r4, r0
 8002ca8:	b1c0      	cbz	r0, 8002cdc <HAL_RNG_Init+0x38>
 8002caa:	7a43      	ldrb	r3, [r0, #9]
 8002cac:	f003 02ff 	and.w	r2, r3, #255	; 0xff
 8002cb0:	b913      	cbnz	r3, 8002cb8 <HAL_RNG_Init+0x14>
 8002cb2:	7202      	strb	r2, [r0, #8]
 8002cb4:	f7fe f9b4 	bl	8001020 <HAL_RNG_MspInit>
 8002cb8:	6822      	ldr	r2, [r4, #0]
 8002cba:	6861      	ldr	r1, [r4, #4]
 8002cbc:	2302      	movs	r3, #2
 8002cbe:	7263      	strb	r3, [r4, #9]
 8002cc0:	6813      	ldr	r3, [r2, #0]
 8002cc2:	f023 0320 	bic.w	r3, r3, #32
 8002cc6:	430b      	orrs	r3, r1
 8002cc8:	6013      	str	r3, [r2, #0]
 8002cca:	6813      	ldr	r3, [r2, #0]
 8002ccc:	f043 0304 	orr.w	r3, r3, #4
 8002cd0:	6013      	str	r3, [r2, #0]
 8002cd2:	2000      	movs	r0, #0
 8002cd4:	2301      	movs	r3, #1
 8002cd6:	7263      	strb	r3, [r4, #9]
 8002cd8:	60e0      	str	r0, [r4, #12]
 8002cda:	bd10      	pop	{r4, pc}
 8002cdc:	2001      	movs	r0, #1
 8002cde:	e7fc      	b.n	8002cda <HAL_RNG_Init+0x36>

08002ce0 <HAL_RTC_WaitForSynchro>:
 8002ce0:	6802      	ldr	r2, [r0, #0]
 8002ce2:	b538      	push	{r3, r4, r5, lr}
 8002ce4:	68d3      	ldr	r3, [r2, #12]
 8002ce6:	f023 03a0 	bic.w	r3, r3, #160	; 0xa0
 8002cea:	60d3      	str	r3, [r2, #12]
 8002cec:	4604      	mov	r4, r0
 8002cee:	f7fe fe7d 	bl	80019ec <HAL_GetTick>
 8002cf2:	4605      	mov	r5, r0
 8002cf4:	6823      	ldr	r3, [r4, #0]
 8002cf6:	68db      	ldr	r3, [r3, #12]
 8002cf8:	069b      	lsls	r3, r3, #26
 8002cfa:	d501      	bpl.n	8002d00 <HAL_RTC_WaitForSynchro+0x20>
 8002cfc:	2000      	movs	r0, #0
 8002cfe:	bd38      	pop	{r3, r4, r5, pc}
 8002d00:	f7fe fe74 	bl	80019ec <HAL_GetTick>
 8002d04:	1b40      	subs	r0, r0, r5
 8002d06:	f5b0 7f7a 	cmp.w	r0, #1000	; 0x3e8
 8002d0a:	d9f3      	bls.n	8002cf4 <HAL_RTC_WaitForSynchro+0x14>
 8002d0c:	2003      	movs	r0, #3
 8002d0e:	e7f6      	b.n	8002cfe <HAL_RTC_WaitForSynchro+0x1e>

08002d10 <RTC_EnterInitMode>:
 8002d10:	b538      	push	{r3, r4, r5, lr}
 8002d12:	6803      	ldr	r3, [r0, #0]
 8002d14:	68da      	ldr	r2, [r3, #12]
 8002d16:	0652      	lsls	r2, r2, #25
 8002d18:	4604      	mov	r4, r0
 8002d1a:	d501      	bpl.n	8002d20 <RTC_EnterInitMode+0x10>
 8002d1c:	2000      	movs	r0, #0
 8002d1e:	bd38      	pop	{r3, r4, r5, pc}
 8002d20:	f04f 32ff 	mov.w	r2, #4294967295
 8002d24:	60da      	str	r2, [r3, #12]
 8002d26:	f7fe fe61 	bl	80019ec <HAL_GetTick>
 8002d2a:	4605      	mov	r5, r0
 8002d2c:	6823      	ldr	r3, [r4, #0]
 8002d2e:	68db      	ldr	r3, [r3, #12]
 8002d30:	065b      	lsls	r3, r3, #25
 8002d32:	d4f3      	bmi.n	8002d1c <RTC_EnterInitMode+0xc>
 8002d34:	f7fe fe5a 	bl	80019ec <HAL_GetTick>
 8002d38:	1b40      	subs	r0, r0, r5
 8002d3a:	f5b0 7f7a 	cmp.w	r0, #1000	; 0x3e8
 8002d3e:	d9f5      	bls.n	8002d2c <RTC_EnterInitMode+0x1c>
 8002d40:	2003      	movs	r0, #3
 8002d42:	e7ec      	b.n	8002d1e <RTC_EnterInitMode+0xe>

08002d44 <HAL_RTC_Init>:
 8002d44:	b538      	push	{r3, r4, r5, lr}
 8002d46:	4604      	mov	r4, r0
 8002d48:	b1f0      	cbz	r0, 8002d88 <HAL_RTC_Init+0x44>
 8002d4a:	f890 3021 	ldrb.w	r3, [r0, #33]	; 0x21
 8002d4e:	f003 02ff 	and.w	r2, r3, #255	; 0xff
 8002d52:	b91b      	cbnz	r3, 8002d5c <HAL_RTC_Init+0x18>
 8002d54:	f880 2020 	strb.w	r2, [r0, #32]
 8002d58:	f7fe f982 	bl	8001060 <HAL_RTC_MspInit>
 8002d5c:	2302      	movs	r3, #2
 8002d5e:	f884 3021 	strb.w	r3, [r4, #33]	; 0x21
 8002d62:	4b28      	ldr	r3, [pc, #160]	; (8002e04 <HAL_RTC_Init+0xc0>)
 8002d64:	68db      	ldr	r3, [r3, #12]
 8002d66:	06db      	lsls	r3, r3, #27
 8002d68:	d447      	bmi.n	8002dfa <HAL_RTC_Init+0xb6>
 8002d6a:	6823      	ldr	r3, [r4, #0]
 8002d6c:	22ca      	movs	r2, #202	; 0xca
 8002d6e:	625a      	str	r2, [r3, #36]	; 0x24
 8002d70:	2253      	movs	r2, #83	; 0x53
 8002d72:	625a      	str	r2, [r3, #36]	; 0x24
 8002d74:	4620      	mov	r0, r4
 8002d76:	f7ff ffcb 	bl	8002d10 <RTC_EnterInitMode>
 8002d7a:	6823      	ldr	r3, [r4, #0]
 8002d7c:	b130      	cbz	r0, 8002d8c <HAL_RTC_Init+0x48>
 8002d7e:	22ff      	movs	r2, #255	; 0xff
 8002d80:	625a      	str	r2, [r3, #36]	; 0x24
 8002d82:	2304      	movs	r3, #4
 8002d84:	f884 3021 	strb.w	r3, [r4, #33]	; 0x21
 8002d88:	2001      	movs	r0, #1
 8002d8a:	e03a      	b.n	8002e02 <HAL_RTC_Init+0xbe>
 8002d8c:	689a      	ldr	r2, [r3, #8]
 8002d8e:	6920      	ldr	r0, [r4, #16]
 8002d90:	f422 02e0 	bic.w	r2, r2, #7340032	; 0x700000
 8002d94:	f022 0240 	bic.w	r2, r2, #64	; 0x40
 8002d98:	609a      	str	r2, [r3, #8]
 8002d9a:	6862      	ldr	r2, [r4, #4]
 8002d9c:	6899      	ldr	r1, [r3, #8]
 8002d9e:	4302      	orrs	r2, r0
 8002da0:	69a0      	ldr	r0, [r4, #24]
 8002da2:	4302      	orrs	r2, r0
 8002da4:	430a      	orrs	r2, r1
 8002da6:	609a      	str	r2, [r3, #8]
 8002da8:	68e2      	ldr	r2, [r4, #12]
 8002daa:	611a      	str	r2, [r3, #16]
 8002dac:	691a      	ldr	r2, [r3, #16]
 8002dae:	68a1      	ldr	r1, [r4, #8]
 8002db0:	6960      	ldr	r0, [r4, #20]
 8002db2:	ea42 4201 	orr.w	r2, r2, r1, lsl #16
 8002db6:	611a      	str	r2, [r3, #16]
 8002db8:	68da      	ldr	r2, [r3, #12]
 8002dba:	f022 0280 	bic.w	r2, r2, #128	; 0x80
 8002dbe:	60da      	str	r2, [r3, #12]
 8002dc0:	6cda      	ldr	r2, [r3, #76]	; 0x4c
 8002dc2:	f022 0203 	bic.w	r2, r2, #3
 8002dc6:	64da      	str	r2, [r3, #76]	; 0x4c
 8002dc8:	69e2      	ldr	r2, [r4, #28]
 8002dca:	6cd9      	ldr	r1, [r3, #76]	; 0x4c
 8002dcc:	4302      	orrs	r2, r0
 8002dce:	430a      	orrs	r2, r1
 8002dd0:	64da      	str	r2, [r3, #76]	; 0x4c
 8002dd2:	689d      	ldr	r5, [r3, #8]
 8002dd4:	f015 0520 	ands.w	r5, r5, #32
 8002dd8:	d10c      	bne.n	8002df4 <HAL_RTC_Init+0xb0>
 8002dda:	4620      	mov	r0, r4
 8002ddc:	f7ff ff80 	bl	8002ce0 <HAL_RTC_WaitForSynchro>
 8002de0:	b140      	cbz	r0, 8002df4 <HAL_RTC_Init+0xb0>
 8002de2:	6823      	ldr	r3, [r4, #0]
 8002de4:	22ff      	movs	r2, #255	; 0xff
 8002de6:	625a      	str	r2, [r3, #36]	; 0x24
 8002de8:	2304      	movs	r3, #4
 8002dea:	f884 3021 	strb.w	r3, [r4, #33]	; 0x21
 8002dee:	f884 5020 	strb.w	r5, [r4, #32]
 8002df2:	e7c9      	b.n	8002d88 <HAL_RTC_Init+0x44>
 8002df4:	6823      	ldr	r3, [r4, #0]
 8002df6:	22ff      	movs	r2, #255	; 0xff
 8002df8:	625a      	str	r2, [r3, #36]	; 0x24
 8002dfa:	2301      	movs	r3, #1
 8002dfc:	f884 3021 	strb.w	r3, [r4, #33]	; 0x21
 8002e00:	2000      	movs	r0, #0
 8002e02:	bd38      	pop	{r3, r4, r5, pc}
 8002e04:	40002800 	.word	0x40002800

08002e08 <HAL_RTCEx_SetWakeUpTimer_IT>:
 8002e08:	e92d 41f0 	stmdb	sp!, {r4, r5, r6, r7, r8, lr}
 8002e0c:	f890 3020 	ldrb.w	r3, [r0, #32]
 8002e10:	2b01      	cmp	r3, #1
 8002e12:	4604      	mov	r4, r0
 8002e14:	460e      	mov	r6, r1
 8002e16:	4615      	mov	r5, r2
 8002e18:	f04f 0002 	mov.w	r0, #2
 8002e1c:	d058      	beq.n	8002ed0 <HAL_RTCEx_SetWakeUpTimer_IT+0xc8>
 8002e1e:	2301      	movs	r3, #1
 8002e20:	f884 3020 	strb.w	r3, [r4, #32]
 8002e24:	6823      	ldr	r3, [r4, #0]
 8002e26:	f884 0021 	strb.w	r0, [r4, #33]	; 0x21
 8002e2a:	22ca      	movs	r2, #202	; 0xca
 8002e2c:	625a      	str	r2, [r3, #36]	; 0x24
 8002e2e:	2253      	movs	r2, #83	; 0x53
 8002e30:	625a      	str	r2, [r3, #36]	; 0x24
 8002e32:	689b      	ldr	r3, [r3, #8]
 8002e34:	055a      	lsls	r2, r3, #21
 8002e36:	d435      	bmi.n	8002ea4 <HAL_RTCEx_SetWakeUpTimer_IT+0x9c>
 8002e38:	6822      	ldr	r2, [r4, #0]
 8002e3a:	6893      	ldr	r3, [r2, #8]
 8002e3c:	f423 6380 	bic.w	r3, r3, #1024	; 0x400
 8002e40:	6093      	str	r3, [r2, #8]
 8002e42:	68d3      	ldr	r3, [r2, #12]
 8002e44:	b2db      	uxtb	r3, r3
 8002e46:	f463 6390 	orn	r3, r3, #1152	; 0x480
 8002e4a:	60d3      	str	r3, [r2, #12]
 8002e4c:	f7fe fdce 	bl	80019ec <HAL_GetTick>
 8002e50:	4680      	mov	r8, r0
 8002e52:	6823      	ldr	r3, [r4, #0]
 8002e54:	68df      	ldr	r7, [r3, #12]
 8002e56:	f017 0704 	ands.w	r7, r7, #4
 8002e5a:	d03b      	beq.n	8002ed4 <HAL_RTCEx_SetWakeUpTimer_IT+0xcc>
 8002e5c:	615e      	str	r6, [r3, #20]
 8002e5e:	689a      	ldr	r2, [r3, #8]
 8002e60:	f022 0207 	bic.w	r2, r2, #7
 8002e64:	609a      	str	r2, [r3, #8]
 8002e66:	689a      	ldr	r2, [r3, #8]
 8002e68:	4315      	orrs	r5, r2
 8002e6a:	4a22      	ldr	r2, [pc, #136]	; (8002ef4 <HAL_RTCEx_SetWakeUpTimer_IT+0xec>)
 8002e6c:	609d      	str	r5, [r3, #8]
 8002e6e:	f8d2 1080 	ldr.w	r1, [r2, #128]	; 0x80
 8002e72:	f441 2100 	orr.w	r1, r1, #524288	; 0x80000
 8002e76:	f8c2 1080 	str.w	r1, [r2, #128]	; 0x80
 8002e7a:	6811      	ldr	r1, [r2, #0]
 8002e7c:	f441 2100 	orr.w	r1, r1, #524288	; 0x80000
 8002e80:	6011      	str	r1, [r2, #0]
 8002e82:	689a      	ldr	r2, [r3, #8]
 8002e84:	f442 4280 	orr.w	r2, r2, #16384	; 0x4000
 8002e88:	609a      	str	r2, [r3, #8]
 8002e8a:	689a      	ldr	r2, [r3, #8]
 8002e8c:	f442 6280 	orr.w	r2, r2, #1024	; 0x400
 8002e90:	609a      	str	r2, [r3, #8]
 8002e92:	22ff      	movs	r2, #255	; 0xff
 8002e94:	625a      	str	r2, [r3, #36]	; 0x24
 8002e96:	2000      	movs	r0, #0
 8002e98:	2301      	movs	r3, #1
 8002e9a:	f884 3021 	strb.w	r3, [r4, #33]	; 0x21
 8002e9e:	f884 0020 	strb.w	r0, [r4, #32]
 8002ea2:	e015      	b.n	8002ed0 <HAL_RTCEx_SetWakeUpTimer_IT+0xc8>
 8002ea4:	f7fe fda2 	bl	80019ec <HAL_GetTick>
 8002ea8:	4607      	mov	r7, r0
 8002eaa:	6823      	ldr	r3, [r4, #0]
 8002eac:	68db      	ldr	r3, [r3, #12]
 8002eae:	075b      	lsls	r3, r3, #29
 8002eb0:	d5c2      	bpl.n	8002e38 <HAL_RTCEx_SetWakeUpTimer_IT+0x30>
 8002eb2:	f7fe fd9b 	bl	80019ec <HAL_GetTick>
 8002eb6:	1bc0      	subs	r0, r0, r7
 8002eb8:	f5b0 7f7a 	cmp.w	r0, #1000	; 0x3e8
 8002ebc:	d9f5      	bls.n	8002eaa <HAL_RTCEx_SetWakeUpTimer_IT+0xa2>
 8002ebe:	6823      	ldr	r3, [r4, #0]
 8002ec0:	22ff      	movs	r2, #255	; 0xff
 8002ec2:	625a      	str	r2, [r3, #36]	; 0x24
 8002ec4:	2003      	movs	r0, #3
 8002ec6:	2300      	movs	r3, #0
 8002ec8:	f884 0021 	strb.w	r0, [r4, #33]	; 0x21
 8002ecc:	f884 3020 	strb.w	r3, [r4, #32]
 8002ed0:	e8bd 81f0 	ldmia.w	sp!, {r4, r5, r6, r7, r8, pc}
 8002ed4:	f7fe fd8a 	bl	80019ec <HAL_GetTick>
 8002ed8:	eba0 0008 	sub.w	r0, r0, r8
 8002edc:	f5b0 7f7a 	cmp.w	r0, #1000	; 0x3e8
 8002ee0:	d9b7      	bls.n	8002e52 <HAL_RTCEx_SetWakeUpTimer_IT+0x4a>
 8002ee2:	6823      	ldr	r3, [r4, #0]
 8002ee4:	22ff      	movs	r2, #255	; 0xff
 8002ee6:	2003      	movs	r0, #3
 8002ee8:	625a      	str	r2, [r3, #36]	; 0x24
 8002eea:	f884 0021 	strb.w	r0, [r4, #33]	; 0x21
 8002eee:	f884 7020 	strb.w	r7, [r4, #32]
 8002ef2:	e7ed      	b.n	8002ed0 <HAL_RTCEx_SetWakeUpTimer_IT+0xc8>
 8002ef4:	58000800 	.word	0x58000800

08002ef8 <UART_EndRxTransfer>:
 8002ef8:	b510      	push	{r4, lr}
 8002efa:	6802      	ldr	r2, [r0, #0]
 8002efc:	e852 3f00 	ldrex	r3, [r2]
 8002f00:	f423 7390 	bic.w	r3, r3, #288	; 0x120
 8002f04:	e842 3100 	strex	r1, r3, [r2]
 8002f08:	6802      	ldr	r2, [r0, #0]
 8002f0a:	2900      	cmp	r1, #0
 8002f0c:	d1f5      	bne.n	8002efa <UART_EndRxTransfer+0x2>
 8002f0e:	4c0f      	ldr	r4, [pc, #60]	; (8002f4c <UART_EndRxTransfer+0x54>)
 8002f10:	f102 0308 	add.w	r3, r2, #8
 8002f14:	e853 3f00 	ldrex	r3, [r3]
 8002f18:	4023      	ands	r3, r4
 8002f1a:	f102 0c08 	add.w	ip, r2, #8
 8002f1e:	e84c 3100 	strex	r1, r3, [ip]
 8002f22:	2900      	cmp	r1, #0
 8002f24:	d1f4      	bne.n	8002f10 <UART_EndRxTransfer+0x18>
 8002f26:	6ec3      	ldr	r3, [r0, #108]	; 0x6c
 8002f28:	2b01      	cmp	r3, #1
 8002f2a:	d107      	bne.n	8002f3c <UART_EndRxTransfer+0x44>
 8002f2c:	e852 3f00 	ldrex	r3, [r2]
 8002f30:	f023 0310 	bic.w	r3, r3, #16
 8002f34:	e842 3100 	strex	r1, r3, [r2]
 8002f38:	2900      	cmp	r1, #0
 8002f3a:	d1f7      	bne.n	8002f2c <UART_EndRxTransfer+0x34>
 8002f3c:	2320      	movs	r3, #32
 8002f3e:	f8c0 308c 	str.w	r3, [r0, #140]	; 0x8c
 8002f42:	2300      	movs	r3, #0
 8002f44:	66c3      	str	r3, [r0, #108]	; 0x6c
 8002f46:	6743      	str	r3, [r0, #116]	; 0x74
 8002f48:	bd10      	pop	{r4, pc}
 8002f4a:	bf00      	nop
 8002f4c:	effffffe 	.word	0xeffffffe

08002f50 <HAL_UART_ErrorCallback>:
 8002f50:	4770      	bx	lr

08002f52 <UART_DMAAbortOnError>:
 8002f52:	b508      	push	{r3, lr}
 8002f54:	6a80      	ldr	r0, [r0, #40]	; 0x28
 8002f56:	2300      	movs	r3, #0
 8002f58:	f8a0 305e 	strh.w	r3, [r0, #94]	; 0x5e
 8002f5c:	f8a0 3056 	strh.w	r3, [r0, #86]	; 0x56
 8002f60:	f7ff fff6 	bl	8002f50 <HAL_UART_ErrorCallback>
 8002f64:	bd08      	pop	{r3, pc}

08002f66 <HAL_UARTEx_RxEventCallback>:
 8002f66:	4770      	bx	lr

08002f68 <HAL_UART_IRQHandler>:
 8002f68:	6803      	ldr	r3, [r0, #0]
 8002f6a:	69da      	ldr	r2, [r3, #28]
 8002f6c:	6819      	ldr	r1, [r3, #0]
 8002f6e:	e92d 41f0 	stmdb	sp!, {r4, r5, r6, r7, r8, lr}
 8002f72:	f640 060f 	movw	r6, #2063	; 0x80f
 8002f76:	4232      	tst	r2, r6
 8002f78:	689d      	ldr	r5, [r3, #8]
 8002f7a:	4604      	mov	r4, r0
 8002f7c:	d110      	bne.n	8002fa0 <HAL_UART_IRQHandler+0x38>
 8002f7e:	0696      	lsls	r6, r2, #26
 8002f80:	f140 8098 	bpl.w	80030b4 <HAL_UART_IRQHandler+0x14c>
 8002f84:	f001 0620 	and.w	r6, r1, #32
 8002f88:	f005 5780 	and.w	r7, r5, #268435456	; 0x10000000
 8002f8c:	433e      	orrs	r6, r7
 8002f8e:	f000 8091 	beq.w	80030b4 <HAL_UART_IRQHandler+0x14c>
 8002f92:	6f43      	ldr	r3, [r0, #116]	; 0x74
 8002f94:	2b00      	cmp	r3, #0
 8002f96:	f000 8086 	beq.w	80030a6 <HAL_UART_IRQHandler+0x13e>
 8002f9a:	e8bd 41f0 	ldmia.w	sp!, {r4, r5, r6, r7, r8, lr}
 8002f9e:	4718      	bx	r3
 8002fa0:	4eac      	ldr	r6, [pc, #688]	; (8003254 <HAL_UART_IRQHandler+0x2ec>)
 8002fa2:	48ad      	ldr	r0, [pc, #692]	; (8003258 <HAL_UART_IRQHandler+0x2f0>)
 8002fa4:	402e      	ands	r6, r5
 8002fa6:	4008      	ands	r0, r1
 8002fa8:	4330      	orrs	r0, r6
 8002faa:	f000 8083 	beq.w	80030b4 <HAL_UART_IRQHandler+0x14c>
 8002fae:	07d7      	lsls	r7, r2, #31
 8002fb0:	d509      	bpl.n	8002fc6 <HAL_UART_IRQHandler+0x5e>
 8002fb2:	05c8      	lsls	r0, r1, #23
 8002fb4:	d507      	bpl.n	8002fc6 <HAL_UART_IRQHandler+0x5e>
 8002fb6:	2001      	movs	r0, #1
 8002fb8:	6218      	str	r0, [r3, #32]
 8002fba:	f8d4 0090 	ldr.w	r0, [r4, #144]	; 0x90
 8002fbe:	f040 0001 	orr.w	r0, r0, #1
 8002fc2:	f8c4 0090 	str.w	r0, [r4, #144]	; 0x90
 8002fc6:	0797      	lsls	r7, r2, #30
 8002fc8:	d509      	bpl.n	8002fde <HAL_UART_IRQHandler+0x76>
 8002fca:	07e8      	lsls	r0, r5, #31
 8002fcc:	d507      	bpl.n	8002fde <HAL_UART_IRQHandler+0x76>
 8002fce:	2002      	movs	r0, #2
 8002fd0:	6218      	str	r0, [r3, #32]
 8002fd2:	f8d4 0090 	ldr.w	r0, [r4, #144]	; 0x90
 8002fd6:	f040 0004 	orr.w	r0, r0, #4
 8002fda:	f8c4 0090 	str.w	r0, [r4, #144]	; 0x90
 8002fde:	0757      	lsls	r7, r2, #29
 8002fe0:	d509      	bpl.n	8002ff6 <HAL_UART_IRQHandler+0x8e>
 8002fe2:	07e8      	lsls	r0, r5, #31
 8002fe4:	d507      	bpl.n	8002ff6 <HAL_UART_IRQHandler+0x8e>
 8002fe6:	2004      	movs	r0, #4
 8002fe8:	6218      	str	r0, [r3, #32]
 8002fea:	f8d4 0090 	ldr.w	r0, [r4, #144]	; 0x90
 8002fee:	f040 0002 	orr.w	r0, r0, #2
 8002ff2:	f8c4 0090 	str.w	r0, [r4, #144]	; 0x90
 8002ff6:	0717      	lsls	r7, r2, #28
 8002ff8:	d50b      	bpl.n	8003012 <HAL_UART_IRQHandler+0xaa>
 8002ffa:	f001 0020 	and.w	r0, r1, #32
 8002ffe:	4330      	orrs	r0, r6
 8003000:	d007      	beq.n	8003012 <HAL_UART_IRQHandler+0xaa>
 8003002:	2008      	movs	r0, #8
 8003004:	6218      	str	r0, [r3, #32]
 8003006:	f8d4 0090 	ldr.w	r0, [r4, #144]	; 0x90
 800300a:	f040 0008 	orr.w	r0, r0, #8
 800300e:	f8c4 0090 	str.w	r0, [r4, #144]	; 0x90
 8003012:	0516      	lsls	r6, r2, #20
 8003014:	d50a      	bpl.n	800302c <HAL_UART_IRQHandler+0xc4>
 8003016:	0148      	lsls	r0, r1, #5
 8003018:	d508      	bpl.n	800302c <HAL_UART_IRQHandler+0xc4>
 800301a:	f44f 6000 	mov.w	r0, #2048	; 0x800
 800301e:	6218      	str	r0, [r3, #32]
 8003020:	f8d4 3090 	ldr.w	r3, [r4, #144]	; 0x90
 8003024:	f043 0320 	orr.w	r3, r3, #32
 8003028:	f8c4 3090 	str.w	r3, [r4, #144]	; 0x90
 800302c:	f8d4 3090 	ldr.w	r3, [r4, #144]	; 0x90
 8003030:	2b00      	cmp	r3, #0
 8003032:	d038      	beq.n	80030a6 <HAL_UART_IRQHandler+0x13e>
 8003034:	0693      	lsls	r3, r2, #26
 8003036:	d50a      	bpl.n	800304e <HAL_UART_IRQHandler+0xe6>
 8003038:	f001 0120 	and.w	r1, r1, #32
 800303c:	f005 5580 	and.w	r5, r5, #268435456	; 0x10000000
 8003040:	ea51 0305 	orrs.w	r3, r1, r5
 8003044:	d003      	beq.n	800304e <HAL_UART_IRQHandler+0xe6>
 8003046:	6f63      	ldr	r3, [r4, #116]	; 0x74
 8003048:	b10b      	cbz	r3, 800304e <HAL_UART_IRQHandler+0xe6>
 800304a:	4620      	mov	r0, r4
 800304c:	4798      	blx	r3
 800304e:	6823      	ldr	r3, [r4, #0]
 8003050:	f8d4 5090 	ldr.w	r5, [r4, #144]	; 0x90
 8003054:	689b      	ldr	r3, [r3, #8]
 8003056:	f005 0528 	and.w	r5, r5, #40	; 0x28
 800305a:	f003 0340 	and.w	r3, r3, #64	; 0x40
 800305e:	431d      	orrs	r5, r3
 8003060:	4620      	mov	r0, r4
 8003062:	d022      	beq.n	80030aa <HAL_UART_IRQHandler+0x142>
 8003064:	f7ff ff48 	bl	8002ef8 <UART_EndRxTransfer>
 8003068:	6822      	ldr	r2, [r4, #0]
 800306a:	6893      	ldr	r3, [r2, #8]
 800306c:	065f      	lsls	r7, r3, #25
 800306e:	d517      	bpl.n	80030a0 <HAL_UART_IRQHandler+0x138>
 8003070:	f102 0308 	add.w	r3, r2, #8
 8003074:	e853 3f00 	ldrex	r3, [r3]
 8003078:	f023 0340 	bic.w	r3, r3, #64	; 0x40
 800307c:	f102 0008 	add.w	r0, r2, #8
 8003080:	e840 3100 	strex	r1, r3, [r0]
 8003084:	2900      	cmp	r1, #0
 8003086:	d1f3      	bne.n	8003070 <HAL_UART_IRQHandler+0x108>
 8003088:	f8d4 0080 	ldr.w	r0, [r4, #128]	; 0x80
 800308c:	b140      	cbz	r0, 80030a0 <HAL_UART_IRQHandler+0x138>
 800308e:	4b73      	ldr	r3, [pc, #460]	; (800325c <HAL_UART_IRQHandler+0x2f4>)
 8003090:	6383      	str	r3, [r0, #56]	; 0x38
 8003092:	f7fe fdb2 	bl	8001bfa <HAL_DMA_Abort_IT>
 8003096:	b130      	cbz	r0, 80030a6 <HAL_UART_IRQHandler+0x13e>
 8003098:	f8d4 0080 	ldr.w	r0, [r4, #128]	; 0x80
 800309c:	6b83      	ldr	r3, [r0, #56]	; 0x38
 800309e:	e77c      	b.n	8002f9a <HAL_UART_IRQHandler+0x32>
 80030a0:	4620      	mov	r0, r4
 80030a2:	f7ff ff55 	bl	8002f50 <HAL_UART_ErrorCallback>
 80030a6:	e8bd 81f0 	ldmia.w	sp!, {r4, r5, r6, r7, r8, pc}
 80030aa:	f7ff ff51 	bl	8002f50 <HAL_UART_ErrorCallback>
 80030ae:	f8c4 5090 	str.w	r5, [r4, #144]	; 0x90
 80030b2:	e7f8      	b.n	80030a6 <HAL_UART_IRQHandler+0x13e>
 80030b4:	6ee0      	ldr	r0, [r4, #108]	; 0x6c
 80030b6:	2801      	cmp	r0, #1
 80030b8:	f040 8089 	bne.w	80031ce <HAL_UART_IRQHandler+0x266>
 80030bc:	06d6      	lsls	r6, r2, #27
 80030be:	f140 8086 	bpl.w	80031ce <HAL_UART_IRQHandler+0x266>
 80030c2:	06c8      	lsls	r0, r1, #27
 80030c4:	f140 8083 	bpl.w	80031ce <HAL_UART_IRQHandler+0x266>
 80030c8:	2210      	movs	r2, #16
 80030ca:	621a      	str	r2, [r3, #32]
 80030cc:	689a      	ldr	r2, [r3, #8]
 80030ce:	0651      	lsls	r1, r2, #25
 80030d0:	d54b      	bpl.n	800316a <HAL_UART_IRQHandler+0x202>
 80030d2:	f8d4 2080 	ldr.w	r2, [r4, #128]	; 0x80
 80030d6:	6811      	ldr	r1, [r2, #0]
 80030d8:	684a      	ldr	r2, [r1, #4]
 80030da:	b292      	uxth	r2, r2
 80030dc:	2a00      	cmp	r2, #0
 80030de:	d0e2      	beq.n	80030a6 <HAL_UART_IRQHandler+0x13e>
 80030e0:	f8b4 005c 	ldrh.w	r0, [r4, #92]	; 0x5c
 80030e4:	4290      	cmp	r0, r2
 80030e6:	d9de      	bls.n	80030a6 <HAL_UART_IRQHandler+0x13e>
 80030e8:	f8a4 205e 	strh.w	r2, [r4, #94]	; 0x5e
 80030ec:	680a      	ldr	r2, [r1, #0]
 80030ee:	0692      	lsls	r2, r2, #26
 80030f0:	d42f      	bmi.n	8003152 <HAL_UART_IRQHandler+0x1ea>
 80030f2:	e853 2f00 	ldrex	r2, [r3]
 80030f6:	f422 7280 	bic.w	r2, r2, #256	; 0x100
 80030fa:	e843 2100 	strex	r1, r2, [r3]
 80030fe:	2900      	cmp	r1, #0
 8003100:	d1f7      	bne.n	80030f2 <HAL_UART_IRQHandler+0x18a>
 8003102:	f103 0208 	add.w	r2, r3, #8
 8003106:	e852 2f00 	ldrex	r2, [r2]
 800310a:	f022 0201 	bic.w	r2, r2, #1
 800310e:	f103 0008 	add.w	r0, r3, #8
 8003112:	e840 2100 	strex	r1, r2, [r0]
 8003116:	2900      	cmp	r1, #0
 8003118:	d1f3      	bne.n	8003102 <HAL_UART_IRQHandler+0x19a>
 800311a:	f103 0208 	add.w	r2, r3, #8
 800311e:	e852 2f00 	ldrex	r2, [r2]
 8003122:	f022 0240 	bic.w	r2, r2, #64	; 0x40
 8003126:	f103 0008 	add.w	r0, r3, #8
 800312a:	e840 2100 	strex	r1, r2, [r0]
 800312e:	2900      	cmp	r1, #0
 8003130:	d1f3      	bne.n	800311a <HAL_UART_IRQHandler+0x1b2>
 8003132:	2220      	movs	r2, #32
 8003134:	f8c4 208c 	str.w	r2, [r4, #140]	; 0x8c
 8003138:	66e1      	str	r1, [r4, #108]	; 0x6c
 800313a:	e853 2f00 	ldrex	r2, [r3]
 800313e:	f022 0210 	bic.w	r2, r2, #16
 8003142:	e843 2100 	strex	r1, r2, [r3]
 8003146:	2900      	cmp	r1, #0
 8003148:	d1f7      	bne.n	800313a <HAL_UART_IRQHandler+0x1d2>
 800314a:	f8d4 0080 	ldr.w	r0, [r4, #128]	; 0x80
 800314e:	f7fe fd1f 	bl	8001b90 <HAL_DMA_Abort>
 8003152:	2302      	movs	r3, #2
 8003154:	6723      	str	r3, [r4, #112]	; 0x70
 8003156:	f8b4 305e 	ldrh.w	r3, [r4, #94]	; 0x5e
 800315a:	f8b4 105c 	ldrh.w	r1, [r4, #92]	; 0x5c
 800315e:	1ac9      	subs	r1, r1, r3
 8003160:	b289      	uxth	r1, r1
 8003162:	4620      	mov	r0, r4
 8003164:	f7ff feff 	bl	8002f66 <HAL_UARTEx_RxEventCallback>
 8003168:	e79d      	b.n	80030a6 <HAL_UART_IRQHandler+0x13e>
 800316a:	f8b4 105e 	ldrh.w	r1, [r4, #94]	; 0x5e
 800316e:	b28a      	uxth	r2, r1
 8003170:	f8b4 105e 	ldrh.w	r1, [r4, #94]	; 0x5e
 8003174:	b289      	uxth	r1, r1
 8003176:	2900      	cmp	r1, #0
 8003178:	d095      	beq.n	80030a6 <HAL_UART_IRQHandler+0x13e>
 800317a:	f8b4 105c 	ldrh.w	r1, [r4, #92]	; 0x5c
 800317e:	1a89      	subs	r1, r1, r2
 8003180:	b289      	uxth	r1, r1
 8003182:	2900      	cmp	r1, #0
 8003184:	d08f      	beq.n	80030a6 <HAL_UART_IRQHandler+0x13e>
 8003186:	e853 2f00 	ldrex	r2, [r3]
 800318a:	f422 7290 	bic.w	r2, r2, #288	; 0x120
 800318e:	e843 2000 	strex	r0, r2, [r3]
 8003192:	2800      	cmp	r0, #0
 8003194:	d1f7      	bne.n	8003186 <HAL_UART_IRQHandler+0x21e>
 8003196:	4d32      	ldr	r5, [pc, #200]	; (8003260 <HAL_UART_IRQHandler+0x2f8>)
 8003198:	f103 0208 	add.w	r2, r3, #8
 800319c:	e852 2f00 	ldrex	r2, [r2]
 80031a0:	402a      	ands	r2, r5
 80031a2:	f103 0608 	add.w	r6, r3, #8
 80031a6:	e846 2000 	strex	r0, r2, [r6]
 80031aa:	2800      	cmp	r0, #0
 80031ac:	d1f4      	bne.n	8003198 <HAL_UART_IRQHandler+0x230>
 80031ae:	2220      	movs	r2, #32
 80031b0:	f8c4 208c 	str.w	r2, [r4, #140]	; 0x8c
 80031b4:	6760      	str	r0, [r4, #116]	; 0x74
 80031b6:	66e0      	str	r0, [r4, #108]	; 0x6c
 80031b8:	e853 2f00 	ldrex	r2, [r3]
 80031bc:	f022 0210 	bic.w	r2, r2, #16
 80031c0:	e843 2000 	strex	r0, r2, [r3]
 80031c4:	2800      	cmp	r0, #0
 80031c6:	d1f7      	bne.n	80031b8 <HAL_UART_IRQHandler+0x250>
 80031c8:	2302      	movs	r3, #2
 80031ca:	6723      	str	r3, [r4, #112]	; 0x70
 80031cc:	e7c9      	b.n	8003162 <HAL_UART_IRQHandler+0x1fa>
 80031ce:	02d7      	lsls	r7, r2, #11
 80031d0:	d509      	bpl.n	80031e6 <HAL_UART_IRQHandler+0x27e>
 80031d2:	026e      	lsls	r6, r5, #9
 80031d4:	d507      	bpl.n	80031e6 <HAL_UART_IRQHandler+0x27e>
 80031d6:	f44f 1280 	mov.w	r2, #1048576	; 0x100000
 80031da:	4620      	mov	r0, r4
 80031dc:	621a      	str	r2, [r3, #32]
 80031de:	e8bd 41f0 	ldmia.w	sp!, {r4, r5, r6, r7, r8, lr}
 80031e2:	f000 bb4d 	b.w	8003880 <HAL_UARTEx_WakeupCallback>
 80031e6:	0610      	lsls	r0, r2, #24
 80031e8:	d50b      	bpl.n	8003202 <HAL_UART_IRQHandler+0x29a>
 80031ea:	f001 0080 	and.w	r0, r1, #128	; 0x80
 80031ee:	f405 0500 	and.w	r5, r5, #8388608	; 0x800000
 80031f2:	4328      	orrs	r0, r5
 80031f4:	d005      	beq.n	8003202 <HAL_UART_IRQHandler+0x29a>
 80031f6:	6fa3      	ldr	r3, [r4, #120]	; 0x78
 80031f8:	2b00      	cmp	r3, #0
 80031fa:	f43f af54 	beq.w	80030a6 <HAL_UART_IRQHandler+0x13e>
 80031fe:	4620      	mov	r0, r4
 8003200:	e6cb      	b.n	8002f9a <HAL_UART_IRQHandler+0x32>
 8003202:	0657      	lsls	r7, r2, #25
 8003204:	d511      	bpl.n	800322a <HAL_UART_IRQHandler+0x2c2>
 8003206:	064e      	lsls	r6, r1, #25
 8003208:	d50f      	bpl.n	800322a <HAL_UART_IRQHandler+0x2c2>
 800320a:	e853 2f00 	ldrex	r2, [r3]
 800320e:	f022 0240 	bic.w	r2, r2, #64	; 0x40
 8003212:	e843 2100 	strex	r1, r2, [r3]
 8003216:	2900      	cmp	r1, #0
 8003218:	d1f7      	bne.n	800320a <HAL_UART_IRQHandler+0x2a2>
 800321a:	2320      	movs	r3, #32
 800321c:	f8c4 3088 	str.w	r3, [r4, #136]	; 0x88
 8003220:	67a1      	str	r1, [r4, #120]	; 0x78
 8003222:	4620      	mov	r0, r4
 8003224:	f7fd fd1e 	bl	8000c64 <HAL_UART_TxCpltCallback>
 8003228:	e73d      	b.n	80030a6 <HAL_UART_IRQHandler+0x13e>
 800322a:	0215      	lsls	r5, r2, #8
 800322c:	d506      	bpl.n	800323c <HAL_UART_IRQHandler+0x2d4>
 800322e:	0048      	lsls	r0, r1, #1
 8003230:	d504      	bpl.n	800323c <HAL_UART_IRQHandler+0x2d4>
 8003232:	4620      	mov	r0, r4
 8003234:	e8bd 41f0 	ldmia.w	sp!, {r4, r5, r6, r7, r8, lr}
 8003238:	f000 bb24 	b.w	8003884 <HAL_UARTEx_TxFifoEmptyCallback>
 800323c:	01d3      	lsls	r3, r2, #7
 800323e:	f57f af32 	bpl.w	80030a6 <HAL_UART_IRQHandler+0x13e>
 8003242:	2900      	cmp	r1, #0
 8003244:	f6bf af2f 	bge.w	80030a6 <HAL_UART_IRQHandler+0x13e>
 8003248:	4620      	mov	r0, r4
 800324a:	e8bd 41f0 	ldmia.w	sp!, {r4, r5, r6, r7, r8, lr}
 800324e:	f000 bb18 	b.w	8003882 <HAL_UARTEx_RxFifoFullCallback>
 8003252:	bf00      	nop
 8003254:	10000001 	.word	0x10000001
 8003258:	04000120 	.word	0x04000120
 800325c:	08002f53 	.word	0x08002f53
 8003260:	effffffe 	.word	0xeffffffe

08003264 <UART_RxISR_8BIT>:
 8003264:	f8d0 208c 	ldr.w	r2, [r0, #140]	; 0x8c
 8003268:	2a22      	cmp	r2, #34	; 0x22
 800326a:	b508      	push	{r3, lr}
 800326c:	6803      	ldr	r3, [r0, #0]
 800326e:	d157      	bne.n	8003320 <UART_RxISR_8BIT+0xbc>
 8003270:	6a5b      	ldr	r3, [r3, #36]	; 0x24
 8003272:	f8b0 1060 	ldrh.w	r1, [r0, #96]	; 0x60
 8003276:	6d82      	ldr	r2, [r0, #88]	; 0x58
 8003278:	400b      	ands	r3, r1
 800327a:	7013      	strb	r3, [r2, #0]
 800327c:	6d83      	ldr	r3, [r0, #88]	; 0x58
 800327e:	3301      	adds	r3, #1
 8003280:	6583      	str	r3, [r0, #88]	; 0x58
 8003282:	f8b0 305e 	ldrh.w	r3, [r0, #94]	; 0x5e
 8003286:	3b01      	subs	r3, #1
 8003288:	b29b      	uxth	r3, r3
 800328a:	f8a0 305e 	strh.w	r3, [r0, #94]	; 0x5e
 800328e:	f8b0 305e 	ldrh.w	r3, [r0, #94]	; 0x5e
 8003292:	b29b      	uxth	r3, r3
 8003294:	2b00      	cmp	r3, #0
 8003296:	d142      	bne.n	800331e <UART_RxISR_8BIT+0xba>
 8003298:	6802      	ldr	r2, [r0, #0]
 800329a:	e852 3f00 	ldrex	r3, [r2]
 800329e:	f423 7390 	bic.w	r3, r3, #288	; 0x120
 80032a2:	e842 3100 	strex	r1, r3, [r2]
 80032a6:	6803      	ldr	r3, [r0, #0]
 80032a8:	2900      	cmp	r1, #0
 80032aa:	d1f5      	bne.n	8003298 <UART_RxISR_8BIT+0x34>
 80032ac:	f103 0208 	add.w	r2, r3, #8
 80032b0:	e852 2f00 	ldrex	r2, [r2]
 80032b4:	f022 0201 	bic.w	r2, r2, #1
 80032b8:	f103 0c08 	add.w	ip, r3, #8
 80032bc:	e84c 2100 	strex	r1, r2, [ip]
 80032c0:	2900      	cmp	r1, #0
 80032c2:	d1f3      	bne.n	80032ac <UART_RxISR_8BIT+0x48>
 80032c4:	2220      	movs	r2, #32
 80032c6:	f8c0 208c 	str.w	r2, [r0, #140]	; 0x8c
 80032ca:	4a18      	ldr	r2, [pc, #96]	; (800332c <UART_RxISR_8BIT+0xc8>)
 80032cc:	6741      	str	r1, [r0, #116]	; 0x74
 80032ce:	4293      	cmp	r3, r2
 80032d0:	6701      	str	r1, [r0, #112]	; 0x70
 80032d2:	d105      	bne.n	80032e0 <UART_RxISR_8BIT+0x7c>
 80032d4:	6ec2      	ldr	r2, [r0, #108]	; 0x6c
 80032d6:	2a01      	cmp	r2, #1
 80032d8:	d00e      	beq.n	80032f8 <UART_RxISR_8BIT+0x94>
 80032da:	f7fd fcb5 	bl	8000c48 <HAL_UART_RxCpltCallback>
 80032de:	e01e      	b.n	800331e <UART_RxISR_8BIT+0xba>
 80032e0:	685a      	ldr	r2, [r3, #4]
 80032e2:	0211      	lsls	r1, r2, #8
 80032e4:	d5f6      	bpl.n	80032d4 <UART_RxISR_8BIT+0x70>
 80032e6:	e853 2f00 	ldrex	r2, [r3]
 80032ea:	f022 6280 	bic.w	r2, r2, #67108864	; 0x4000000
 80032ee:	e843 2100 	strex	r1, r2, [r3]
 80032f2:	2900      	cmp	r1, #0
 80032f4:	d1f7      	bne.n	80032e6 <UART_RxISR_8BIT+0x82>
 80032f6:	e7ed      	b.n	80032d4 <UART_RxISR_8BIT+0x70>
 80032f8:	2200      	movs	r2, #0
 80032fa:	66c2      	str	r2, [r0, #108]	; 0x6c
 80032fc:	e853 2f00 	ldrex	r2, [r3]
 8003300:	f022 0210 	bic.w	r2, r2, #16
 8003304:	e843 2100 	strex	r1, r2, [r3]
 8003308:	2900      	cmp	r1, #0
 800330a:	d1f7      	bne.n	80032fc <UART_RxISR_8BIT+0x98>
 800330c:	69da      	ldr	r2, [r3, #28]
 800330e:	f8b0 105c 	ldrh.w	r1, [r0, #92]	; 0x5c
 8003312:	06d2      	lsls	r2, r2, #27
 8003314:	bf44      	itt	mi
 8003316:	2210      	movmi	r2, #16
 8003318:	621a      	strmi	r2, [r3, #32]
 800331a:	f7ff fe24 	bl	8002f66 <HAL_UARTEx_RxEventCallback>
 800331e:	bd08      	pop	{r3, pc}
 8003320:	699a      	ldr	r2, [r3, #24]
 8003322:	f042 0208 	orr.w	r2, r2, #8
 8003326:	619a      	str	r2, [r3, #24]
 8003328:	e7f9      	b.n	800331e <UART_RxISR_8BIT+0xba>
 800332a:	bf00      	nop
 800332c:	40008000 	.word	0x40008000

08003330 <UART_RxISR_16BIT>:
 8003330:	f8d0 208c 	ldr.w	r2, [r0, #140]	; 0x8c
 8003334:	2a22      	cmp	r2, #34	; 0x22
 8003336:	b508      	push	{r3, lr}
 8003338:	6803      	ldr	r3, [r0, #0]
 800333a:	d154      	bne.n	80033e6 <UART_RxISR_16BIT+0xb6>
 800333c:	6a59      	ldr	r1, [r3, #36]	; 0x24
 800333e:	f8b0 2060 	ldrh.w	r2, [r0, #96]	; 0x60
 8003342:	4011      	ands	r1, r2
 8003344:	6d82      	ldr	r2, [r0, #88]	; 0x58
 8003346:	f822 1b02 	strh.w	r1, [r2], #2
 800334a:	6582      	str	r2, [r0, #88]	; 0x58
 800334c:	f8b0 205e 	ldrh.w	r2, [r0, #94]	; 0x5e
 8003350:	3a01      	subs	r2, #1
 8003352:	b292      	uxth	r2, r2
 8003354:	f8a0 205e 	strh.w	r2, [r0, #94]	; 0x5e
 8003358:	f8b0 205e 	ldrh.w	r2, [r0, #94]	; 0x5e
 800335c:	b292      	uxth	r2, r2
 800335e:	2a00      	cmp	r2, #0
 8003360:	d140      	bne.n	80033e4 <UART_RxISR_16BIT+0xb4>
 8003362:	e853 2f00 	ldrex	r2, [r3]
 8003366:	f422 7290 	bic.w	r2, r2, #288	; 0x120
 800336a:	e843 2100 	strex	r1, r2, [r3]
 800336e:	2900      	cmp	r1, #0
 8003370:	d1f7      	bne.n	8003362 <UART_RxISR_16BIT+0x32>
 8003372:	f103 0208 	add.w	r2, r3, #8
 8003376:	e852 2f00 	ldrex	r2, [r2]
 800337a:	f022 0201 	bic.w	r2, r2, #1
 800337e:	f103 0c08 	add.w	ip, r3, #8
 8003382:	e84c 2100 	strex	r1, r2, [ip]
 8003386:	2900      	cmp	r1, #0
 8003388:	d1f3      	bne.n	8003372 <UART_RxISR_16BIT+0x42>
 800338a:	2220      	movs	r2, #32
 800338c:	f8c0 208c 	str.w	r2, [r0, #140]	; 0x8c
 8003390:	4a17      	ldr	r2, [pc, #92]	; (80033f0 <UART_RxISR_16BIT+0xc0>)
 8003392:	6741      	str	r1, [r0, #116]	; 0x74
 8003394:	4293      	cmp	r3, r2
 8003396:	6701      	str	r1, [r0, #112]	; 0x70
 8003398:	d105      	bne.n	80033a6 <UART_RxISR_16BIT+0x76>
 800339a:	6ec2      	ldr	r2, [r0, #108]	; 0x6c
 800339c:	2a01      	cmp	r2, #1
 800339e:	d00e      	beq.n	80033be <UART_RxISR_16BIT+0x8e>
 80033a0:	f7fd fc52 	bl	8000c48 <HAL_UART_RxCpltCallback>
 80033a4:	e01e      	b.n	80033e4 <UART_RxISR_16BIT+0xb4>
 80033a6:	685a      	ldr	r2, [r3, #4]
 80033a8:	0211      	lsls	r1, r2, #8
 80033aa:	d5f6      	bpl.n	800339a <UART_RxISR_16BIT+0x6a>
 80033ac:	e853 2f00 	ldrex	r2, [r3]
 80033b0:	f022 6280 	bic.w	r2, r2, #67108864	; 0x4000000
 80033b4:	e843 2100 	strex	r1, r2, [r3]
 80033b8:	2900      	cmp	r1, #0
 80033ba:	d1f7      	bne.n	80033ac <UART_RxISR_16BIT+0x7c>
 80033bc:	e7ed      	b.n	800339a <UART_RxISR_16BIT+0x6a>
 80033be:	2200      	movs	r2, #0
 80033c0:	66c2      	str	r2, [r0, #108]	; 0x6c
 80033c2:	e853 2f00 	ldrex	r2, [r3]
 80033c6:	f022 0210 	bic.w	r2, r2, #16
 80033ca:	e843 2100 	strex	r1, r2, [r3]
 80033ce:	2900      	cmp	r1, #0
 80033d0:	d1f7      	bne.n	80033c2 <UART_RxISR_16BIT+0x92>
 80033d2:	69da      	ldr	r2, [r3, #28]
 80033d4:	f8b0 105c 	ldrh.w	r1, [r0, #92]	; 0x5c
 80033d8:	06d2      	lsls	r2, r2, #27
 80033da:	bf44      	itt	mi
 80033dc:	2210      	movmi	r2, #16
 80033de:	621a      	strmi	r2, [r3, #32]
 80033e0:	f7ff fdc1 	bl	8002f66 <HAL_UARTEx_RxEventCallback>
 80033e4:	bd08      	pop	{r3, pc}
 80033e6:	699a      	ldr	r2, [r3, #24]
 80033e8:	f042 0208 	orr.w	r2, r2, #8
 80033ec:	619a      	str	r2, [r3, #24]
 80033ee:	e7f9      	b.n	80033e4 <UART_RxISR_16BIT+0xb4>
 80033f0:	40008000 	.word	0x40008000

080033f4 <UART_RxISR_8BIT_FIFOEN>:
 80033f4:	e92d 4ff7 	stmdb	sp!, {r0, r1, r2, r4, r5, r6, r7, r8, r9, sl, fp, lr}
 80033f8:	6803      	ldr	r3, [r0, #0]
 80033fa:	69df      	ldr	r7, [r3, #28]
 80033fc:	681a      	ldr	r2, [r3, #0]
 80033fe:	689d      	ldr	r5, [r3, #8]
 8003400:	f8d0 108c 	ldr.w	r1, [r0, #140]	; 0x8c
 8003404:	9201      	str	r2, [sp, #4]
 8003406:	2922      	cmp	r1, #34	; 0x22
 8003408:	4604      	mov	r4, r0
 800340a:	f040 80b6 	bne.w	800357a <UART_RxISR_8BIT_FIFOEN+0x186>
 800340e:	f8b0 8060 	ldrh.w	r8, [r0, #96]	; 0x60
 8003412:	f8b0 9068 	ldrh.w	r9, [r0, #104]	; 0x68
 8003416:	f8df a170 	ldr.w	sl, [pc, #368]	; 8003588 <UART_RxISR_8BIT_FIFOEN+0x194>
 800341a:	f8df b170 	ldr.w	fp, [pc, #368]	; 800358c <UART_RxISR_8BIT_FIFOEN+0x198>
 800341e:	2600      	movs	r6, #0
 8003420:	f1b9 0f00 	cmp.w	r9, #0
 8003424:	d001      	beq.n	800342a <UART_RxISR_8BIT_FIFOEN+0x36>
 8003426:	06bb      	lsls	r3, r7, #26
 8003428:	d421      	bmi.n	800346e <UART_RxISR_8BIT_FIFOEN+0x7a>
 800342a:	f8b4 305e 	ldrh.w	r3, [r4, #94]	; 0x5e
 800342e:	b29b      	uxth	r3, r3
 8003430:	b1d3      	cbz	r3, 8003468 <UART_RxISR_8BIT_FIFOEN+0x74>
 8003432:	f8b4 2068 	ldrh.w	r2, [r4, #104]	; 0x68
 8003436:	429a      	cmp	r2, r3
 8003438:	d916      	bls.n	8003468 <UART_RxISR_8BIT_FIFOEN+0x74>
 800343a:	6822      	ldr	r2, [r4, #0]
 800343c:	f102 0308 	add.w	r3, r2, #8
 8003440:	e853 3f00 	ldrex	r3, [r3]
 8003444:	f023 5380 	bic.w	r3, r3, #268435456	; 0x10000000
 8003448:	3208      	adds	r2, #8
 800344a:	e842 3100 	strex	r1, r3, [r2]
 800344e:	6822      	ldr	r2, [r4, #0]
 8003450:	2900      	cmp	r1, #0
 8003452:	d1f2      	bne.n	800343a <UART_RxISR_8BIT_FIFOEN+0x46>
 8003454:	4b4b      	ldr	r3, [pc, #300]	; (8003584 <UART_RxISR_8BIT_FIFOEN+0x190>)
 8003456:	6763      	str	r3, [r4, #116]	; 0x74
 8003458:	e852 3f00 	ldrex	r3, [r2]
 800345c:	f043 0320 	orr.w	r3, r3, #32
 8003460:	e842 3100 	strex	r1, r3, [r2]
 8003464:	2900      	cmp	r1, #0
 8003466:	d1f7      	bne.n	8003458 <UART_RxISR_8BIT_FIFOEN+0x64>
 8003468:	b003      	add	sp, #12
 800346a:	e8bd 8ff0 	ldmia.w	sp!, {r4, r5, r6, r7, r8, r9, sl, fp, pc}
 800346e:	6823      	ldr	r3, [r4, #0]
 8003470:	6da2      	ldr	r2, [r4, #88]	; 0x58
 8003472:	6a5b      	ldr	r3, [r3, #36]	; 0x24
 8003474:	ea03 0308 	and.w	r3, r3, r8
 8003478:	7013      	strb	r3, [r2, #0]
 800347a:	6da3      	ldr	r3, [r4, #88]	; 0x58
 800347c:	3301      	adds	r3, #1
 800347e:	65a3      	str	r3, [r4, #88]	; 0x58
 8003480:	f8b4 305e 	ldrh.w	r3, [r4, #94]	; 0x5e
 8003484:	3b01      	subs	r3, #1
 8003486:	b29b      	uxth	r3, r3
 8003488:	f8a4 305e 	strh.w	r3, [r4, #94]	; 0x5e
 800348c:	6823      	ldr	r3, [r4, #0]
 800348e:	69df      	ldr	r7, [r3, #28]
 8003490:	0778      	lsls	r0, r7, #29
 8003492:	d02c      	beq.n	80034ee <UART_RxISR_8BIT_FIFOEN+0xfa>
 8003494:	07f9      	lsls	r1, r7, #31
 8003496:	d50a      	bpl.n	80034ae <UART_RxISR_8BIT_FIFOEN+0xba>
 8003498:	9a01      	ldr	r2, [sp, #4]
 800349a:	05d2      	lsls	r2, r2, #23
 800349c:	d507      	bpl.n	80034ae <UART_RxISR_8BIT_FIFOEN+0xba>
 800349e:	2101      	movs	r1, #1
 80034a0:	6219      	str	r1, [r3, #32]
 80034a2:	f8d4 1090 	ldr.w	r1, [r4, #144]	; 0x90
 80034a6:	f041 0101 	orr.w	r1, r1, #1
 80034aa:	f8c4 1090 	str.w	r1, [r4, #144]	; 0x90
 80034ae:	07b8      	lsls	r0, r7, #30
 80034b0:	d509      	bpl.n	80034c6 <UART_RxISR_8BIT_FIFOEN+0xd2>
 80034b2:	07e9      	lsls	r1, r5, #31
 80034b4:	d507      	bpl.n	80034c6 <UART_RxISR_8BIT_FIFOEN+0xd2>
 80034b6:	2102      	movs	r1, #2
 80034b8:	6219      	str	r1, [r3, #32]
 80034ba:	f8d4 1090 	ldr.w	r1, [r4, #144]	; 0x90
 80034be:	f041 0104 	orr.w	r1, r1, #4
 80034c2:	f8c4 1090 	str.w	r1, [r4, #144]	; 0x90
 80034c6:	077a      	lsls	r2, r7, #29
 80034c8:	d509      	bpl.n	80034de <UART_RxISR_8BIT_FIFOEN+0xea>
 80034ca:	07e8      	lsls	r0, r5, #31
 80034cc:	d507      	bpl.n	80034de <UART_RxISR_8BIT_FIFOEN+0xea>
 80034ce:	2104      	movs	r1, #4
 80034d0:	6219      	str	r1, [r3, #32]
 80034d2:	f8d4 3090 	ldr.w	r3, [r4, #144]	; 0x90
 80034d6:	f043 0302 	orr.w	r3, r3, #2
 80034da:	f8c4 3090 	str.w	r3, [r4, #144]	; 0x90
 80034de:	f8d4 3090 	ldr.w	r3, [r4, #144]	; 0x90
 80034e2:	b123      	cbz	r3, 80034ee <UART_RxISR_8BIT_FIFOEN+0xfa>
 80034e4:	4620      	mov	r0, r4
 80034e6:	f7ff fd33 	bl	8002f50 <HAL_UART_ErrorCallback>
 80034ea:	f8c4 6090 	str.w	r6, [r4, #144]	; 0x90
 80034ee:	f8b4 305e 	ldrh.w	r3, [r4, #94]	; 0x5e
 80034f2:	b29b      	uxth	r3, r3
 80034f4:	2b00      	cmp	r3, #0
 80034f6:	d193      	bne.n	8003420 <UART_RxISR_8BIT_FIFOEN+0x2c>
 80034f8:	6821      	ldr	r1, [r4, #0]
 80034fa:	e851 3f00 	ldrex	r3, [r1]
 80034fe:	f423 7380 	bic.w	r3, r3, #256	; 0x100
 8003502:	e841 3000 	strex	r0, r3, [r1]
 8003506:	6823      	ldr	r3, [r4, #0]
 8003508:	2800      	cmp	r0, #0
 800350a:	d1f5      	bne.n	80034f8 <UART_RxISR_8BIT_FIFOEN+0x104>
 800350c:	f103 0208 	add.w	r2, r3, #8
 8003510:	e852 1f00 	ldrex	r1, [r2]
 8003514:	ea01 010a 	and.w	r1, r1, sl
 8003518:	e842 1000 	strex	r0, r1, [r2]
 800351c:	2800      	cmp	r0, #0
 800351e:	d1f5      	bne.n	800350c <UART_RxISR_8BIT_FIFOEN+0x118>
 8003520:	2120      	movs	r1, #32
 8003522:	455b      	cmp	r3, fp
 8003524:	f8c4 108c 	str.w	r1, [r4, #140]	; 0x8c
 8003528:	6760      	str	r0, [r4, #116]	; 0x74
 800352a:	6720      	str	r0, [r4, #112]	; 0x70
 800352c:	d00a      	beq.n	8003544 <UART_RxISR_8BIT_FIFOEN+0x150>
 800352e:	6859      	ldr	r1, [r3, #4]
 8003530:	0209      	lsls	r1, r1, #8
 8003532:	d507      	bpl.n	8003544 <UART_RxISR_8BIT_FIFOEN+0x150>
 8003534:	e853 1f00 	ldrex	r1, [r3]
 8003538:	f021 6180 	bic.w	r1, r1, #67108864	; 0x4000000
 800353c:	e843 1000 	strex	r0, r1, [r3]
 8003540:	2800      	cmp	r0, #0
 8003542:	d1f7      	bne.n	8003534 <UART_RxISR_8BIT_FIFOEN+0x140>
 8003544:	6ee1      	ldr	r1, [r4, #108]	; 0x6c
 8003546:	2901      	cmp	r1, #1
 8003548:	d113      	bne.n	8003572 <UART_RxISR_8BIT_FIFOEN+0x17e>
 800354a:	66e6      	str	r6, [r4, #108]	; 0x6c
 800354c:	e853 1f00 	ldrex	r1, [r3]
 8003550:	f021 0110 	bic.w	r1, r1, #16
 8003554:	e843 1000 	strex	r0, r1, [r3]
 8003558:	2800      	cmp	r0, #0
 800355a:	d1f7      	bne.n	800354c <UART_RxISR_8BIT_FIFOEN+0x158>
 800355c:	69d9      	ldr	r1, [r3, #28]
 800355e:	06ca      	lsls	r2, r1, #27
 8003560:	bf44      	itt	mi
 8003562:	2110      	movmi	r1, #16
 8003564:	6219      	strmi	r1, [r3, #32]
 8003566:	4620      	mov	r0, r4
 8003568:	f8b4 105c 	ldrh.w	r1, [r4, #92]	; 0x5c
 800356c:	f7ff fcfb 	bl	8002f66 <HAL_UARTEx_RxEventCallback>
 8003570:	e756      	b.n	8003420 <UART_RxISR_8BIT_FIFOEN+0x2c>
 8003572:	4620      	mov	r0, r4
 8003574:	f7fd fb68 	bl	8000c48 <HAL_UART_RxCpltCallback>
 8003578:	e752      	b.n	8003420 <UART_RxISR_8BIT_FIFOEN+0x2c>
 800357a:	699a      	ldr	r2, [r3, #24]
 800357c:	f042 0208 	orr.w	r2, r2, #8
 8003580:	619a      	str	r2, [r3, #24]
 8003582:	e771      	b.n	8003468 <UART_RxISR_8BIT_FIFOEN+0x74>
 8003584:	08003265 	.word	0x08003265
 8003588:	effffffe 	.word	0xeffffffe
 800358c:	40008000 	.word	0x40008000

08003590 <UART_RxISR_16BIT_FIFOEN>:
 8003590:	e92d 4ff7 	stmdb	sp!, {r0, r1, r2, r4, r5, r6, r7, r8, r9, sl, fp, lr}
 8003594:	6803      	ldr	r3, [r0, #0]
 8003596:	69df      	ldr	r7, [r3, #28]
 8003598:	681a      	ldr	r2, [r3, #0]
 800359a:	689d      	ldr	r5, [r3, #8]
 800359c:	f8d0 108c 	ldr.w	r1, [r0, #140]	; 0x8c
 80035a0:	9201      	str	r2, [sp, #4]
 80035a2:	2922      	cmp	r1, #34	; 0x22
 80035a4:	4604      	mov	r4, r0
 80035a6:	f040 80b4 	bne.w	8003712 <UART_RxISR_16BIT_FIFOEN+0x182>
 80035aa:	f8b0 8060 	ldrh.w	r8, [r0, #96]	; 0x60
 80035ae:	f8b0 9068 	ldrh.w	r9, [r0, #104]	; 0x68
 80035b2:	f8df a16c 	ldr.w	sl, [pc, #364]	; 8003720 <UART_RxISR_16BIT_FIFOEN+0x190>
 80035b6:	f8df b16c 	ldr.w	fp, [pc, #364]	; 8003724 <UART_RxISR_16BIT_FIFOEN+0x194>
 80035ba:	2600      	movs	r6, #0
 80035bc:	f1b9 0f00 	cmp.w	r9, #0
 80035c0:	d001      	beq.n	80035c6 <UART_RxISR_16BIT_FIFOEN+0x36>
 80035c2:	06bb      	lsls	r3, r7, #26
 80035c4:	d421      	bmi.n	800360a <UART_RxISR_16BIT_FIFOEN+0x7a>
 80035c6:	f8b4 305e 	ldrh.w	r3, [r4, #94]	; 0x5e
 80035ca:	b29b      	uxth	r3, r3
 80035cc:	b1d3      	cbz	r3, 8003604 <UART_RxISR_16BIT_FIFOEN+0x74>
 80035ce:	f8b4 2068 	ldrh.w	r2, [r4, #104]	; 0x68
 80035d2:	429a      	cmp	r2, r3
 80035d4:	d916      	bls.n	8003604 <UART_RxISR_16BIT_FIFOEN+0x74>
 80035d6:	6822      	ldr	r2, [r4, #0]
 80035d8:	f102 0308 	add.w	r3, r2, #8
 80035dc:	e853 3f00 	ldrex	r3, [r3]
 80035e0:	f023 5380 	bic.w	r3, r3, #268435456	; 0x10000000
 80035e4:	3208      	adds	r2, #8
 80035e6:	e842 3100 	strex	r1, r3, [r2]
 80035ea:	6822      	ldr	r2, [r4, #0]
 80035ec:	2900      	cmp	r1, #0
 80035ee:	d1f2      	bne.n	80035d6 <UART_RxISR_16BIT_FIFOEN+0x46>
 80035f0:	4b4a      	ldr	r3, [pc, #296]	; (800371c <UART_RxISR_16BIT_FIFOEN+0x18c>)
 80035f2:	6763      	str	r3, [r4, #116]	; 0x74
 80035f4:	e852 3f00 	ldrex	r3, [r2]
 80035f8:	f043 0320 	orr.w	r3, r3, #32
 80035fc:	e842 3100 	strex	r1, r3, [r2]
 8003600:	2900      	cmp	r1, #0
 8003602:	d1f7      	bne.n	80035f4 <UART_RxISR_16BIT_FIFOEN+0x64>
 8003604:	b003      	add	sp, #12
 8003606:	e8bd 8ff0 	ldmia.w	sp!, {r4, r5, r6, r7, r8, r9, sl, fp, pc}
 800360a:	6823      	ldr	r3, [r4, #0]
 800360c:	6da2      	ldr	r2, [r4, #88]	; 0x58
 800360e:	6a59      	ldr	r1, [r3, #36]	; 0x24
 8003610:	ea08 0101 	and.w	r1, r8, r1
 8003614:	f822 1b02 	strh.w	r1, [r2], #2
 8003618:	65a2      	str	r2, [r4, #88]	; 0x58
 800361a:	f8b4 205e 	ldrh.w	r2, [r4, #94]	; 0x5e
 800361e:	3a01      	subs	r2, #1
 8003620:	b292      	uxth	r2, r2
 8003622:	f8a4 205e 	strh.w	r2, [r4, #94]	; 0x5e
 8003626:	69df      	ldr	r7, [r3, #28]
 8003628:	0778      	lsls	r0, r7, #29
 800362a:	d02c      	beq.n	8003686 <UART_RxISR_16BIT_FIFOEN+0xf6>
 800362c:	07f9      	lsls	r1, r7, #31
 800362e:	d50a      	bpl.n	8003646 <UART_RxISR_16BIT_FIFOEN+0xb6>
 8003630:	9a01      	ldr	r2, [sp, #4]
 8003632:	05d2      	lsls	r2, r2, #23
 8003634:	d507      	bpl.n	8003646 <UART_RxISR_16BIT_FIFOEN+0xb6>
 8003636:	2101      	movs	r1, #1
 8003638:	6219      	str	r1, [r3, #32]
 800363a:	f8d4 1090 	ldr.w	r1, [r4, #144]	; 0x90
 800363e:	f041 0101 	orr.w	r1, r1, #1
 8003642:	f8c4 1090 	str.w	r1, [r4, #144]	; 0x90
 8003646:	07b8      	lsls	r0, r7, #30
 8003648:	d509      	bpl.n	800365e <UART_RxISR_16BIT_FIFOEN+0xce>
 800364a:	07e9      	lsls	r1, r5, #31
 800364c:	d507      	bpl.n	800365e <UART_RxISR_16BIT_FIFOEN+0xce>
 800364e:	2102      	movs	r1, #2
 8003650:	6219      	str	r1, [r3, #32]
 8003652:	f8d4 1090 	ldr.w	r1, [r4, #144]	; 0x90
 8003656:	f041 0104 	orr.w	r1, r1, #4
 800365a:	f8c4 1090 	str.w	r1, [r4, #144]	; 0x90
 800365e:	077a      	lsls	r2, r7, #29
 8003660:	d509      	bpl.n	8003676 <UART_RxISR_16BIT_FIFOEN+0xe6>
 8003662:	07e8      	lsls	r0, r5, #31
 8003664:	d507      	bpl.n	8003676 <UART_RxISR_16BIT_FIFOEN+0xe6>
 8003666:	2104      	movs	r1, #4
 8003668:	6219      	str	r1, [r3, #32]
 800366a:	f8d4 3090 	ldr.w	r3, [r4, #144]	; 0x90
 800366e:	f043 0302 	orr.w	r3, r3, #2
 8003672:	f8c4 3090 	str.w	r3, [r4, #144]	; 0x90
 8003676:	f8d4 3090 	ldr.w	r3, [r4, #144]	; 0x90
 800367a:	b123      	cbz	r3, 8003686 <UART_RxISR_16BIT_FIFOEN+0xf6>
 800367c:	4620      	mov	r0, r4
 800367e:	f7ff fc67 	bl	8002f50 <HAL_UART_ErrorCallback>
 8003682:	f8c4 6090 	str.w	r6, [r4, #144]	; 0x90
 8003686:	f8b4 305e 	ldrh.w	r3, [r4, #94]	; 0x5e
 800368a:	b29b      	uxth	r3, r3
 800368c:	2b00      	cmp	r3, #0
 800368e:	d195      	bne.n	80035bc <UART_RxISR_16BIT_FIFOEN+0x2c>
 8003690:	6821      	ldr	r1, [r4, #0]
 8003692:	e851 3f00 	ldrex	r3, [r1]
 8003696:	f423 7380 	bic.w	r3, r3, #256	; 0x100
 800369a:	e841 3000 	strex	r0, r3, [r1]
 800369e:	6823      	ldr	r3, [r4, #0]
 80036a0:	2800      	cmp	r0, #0
 80036a2:	d1f5      	bne.n	8003690 <UART_RxISR_16BIT_FIFOEN+0x100>
 80036a4:	f103 0208 	add.w	r2, r3, #8
 80036a8:	e852 1f00 	ldrex	r1, [r2]
 80036ac:	ea01 010a 	and.w	r1, r1, sl
 80036b0:	e842 1000 	strex	r0, r1, [r2]
 80036b4:	2800      	cmp	r0, #0
 80036b6:	d1f5      	bne.n	80036a4 <UART_RxISR_16BIT_FIFOEN+0x114>
 80036b8:	2120      	movs	r1, #32
 80036ba:	455b      	cmp	r3, fp
 80036bc:	f8c4 108c 	str.w	r1, [r4, #140]	; 0x8c
 80036c0:	6760      	str	r0, [r4, #116]	; 0x74
 80036c2:	6720      	str	r0, [r4, #112]	; 0x70
 80036c4:	d00a      	beq.n	80036dc <UART_RxISR_16BIT_FIFOEN+0x14c>
 80036c6:	6859      	ldr	r1, [r3, #4]
 80036c8:	0209      	lsls	r1, r1, #8
 80036ca:	d507      	bpl.n	80036dc <UART_RxISR_16BIT_FIFOEN+0x14c>
 80036cc:	e853 1f00 	ldrex	r1, [r3]
 80036d0:	f021 6180 	bic.w	r1, r1, #67108864	; 0x4000000
 80036d4:	e843 1000 	strex	r0, r1, [r3]
 80036d8:	2800      	cmp	r0, #0
 80036da:	d1f7      	bne.n	80036cc <UART_RxISR_16BIT_FIFOEN+0x13c>
 80036dc:	6ee1      	ldr	r1, [r4, #108]	; 0x6c
 80036de:	2901      	cmp	r1, #1
 80036e0:	d113      	bne.n	800370a <UART_RxISR_16BIT_FIFOEN+0x17a>
 80036e2:	66e6      	str	r6, [r4, #108]	; 0x6c
 80036e4:	e853 1f00 	ldrex	r1, [r3]
 80036e8:	f021 0110 	bic.w	r1, r1, #16
 80036ec:	e843 1000 	strex	r0, r1, [r3]
 80036f0:	2800      	cmp	r0, #0
 80036f2:	d1f7      	bne.n	80036e4 <UART_RxISR_16BIT_FIFOEN+0x154>
 80036f4:	69d9      	ldr	r1, [r3, #28]
 80036f6:	06ca      	lsls	r2, r1, #27
 80036f8:	bf44      	itt	mi
 80036fa:	2110      	movmi	r1, #16
 80036fc:	6219      	strmi	r1, [r3, #32]
 80036fe:	4620      	mov	r0, r4
 8003700:	f8b4 105c 	ldrh.w	r1, [r4, #92]	; 0x5c
 8003704:	f7ff fc2f 	bl	8002f66 <HAL_UARTEx_RxEventCallback>
 8003708:	e758      	b.n	80035bc <UART_RxISR_16BIT_FIFOEN+0x2c>
 800370a:	4620      	mov	r0, r4
 800370c:	f7fd fa9c 	bl	8000c48 <HAL_UART_RxCpltCallback>
 8003710:	e754      	b.n	80035bc <UART_RxISR_16BIT_FIFOEN+0x2c>
 8003712:	699a      	ldr	r2, [r3, #24]
 8003714:	f042 0208 	orr.w	r2, r2, #8
 8003718:	619a      	str	r2, [r3, #24]
 800371a:	e773      	b.n	8003604 <UART_RxISR_16BIT_FIFOEN+0x74>
 800371c:	08003331 	.word	0x08003331
 8003720:	effffffe 	.word	0xeffffffe
 8003724:	40008000 	.word	0x40008000

08003728 <UART_Start_Receive_IT>:
 8003728:	6883      	ldr	r3, [r0, #8]
 800372a:	b530      	push	{r4, r5, lr}
 800372c:	f5b3 5f80 	cmp.w	r3, #4096	; 0x1000
 8003730:	6581      	str	r1, [r0, #88]	; 0x58
 8003732:	f04f 0100 	mov.w	r1, #0
 8003736:	f8a0 205c 	strh.w	r2, [r0, #92]	; 0x5c
 800373a:	f8a0 205e 	strh.w	r2, [r0, #94]	; 0x5e
 800373e:	6741      	str	r1, [r0, #116]	; 0x74
 8003740:	d135      	bne.n	80037ae <UART_Start_Receive_IT+0x86>
 8003742:	6903      	ldr	r3, [r0, #16]
 8003744:	bb8b      	cbnz	r3, 80037aa <UART_Start_Receive_IT+0x82>
 8003746:	f240 13ff 	movw	r3, #511	; 0x1ff
 800374a:	f8a0 3060 	strh.w	r3, [r0, #96]	; 0x60
 800374e:	2300      	movs	r3, #0
 8003750:	f8c0 3090 	str.w	r3, [r0, #144]	; 0x90
 8003754:	2322      	movs	r3, #34	; 0x22
 8003756:	f8c0 308c 	str.w	r3, [r0, #140]	; 0x8c
 800375a:	6801      	ldr	r1, [r0, #0]
 800375c:	f101 0308 	add.w	r3, r1, #8
 8003760:	e853 3f00 	ldrex	r3, [r3]
 8003764:	f043 0301 	orr.w	r3, r3, #1
 8003768:	3108      	adds	r1, #8
 800376a:	e841 3400 	strex	r4, r3, [r1]
 800376e:	6803      	ldr	r3, [r0, #0]
 8003770:	2c00      	cmp	r4, #0
 8003772:	d1f2      	bne.n	800375a <UART_Start_Receive_IT+0x32>
 8003774:	6e45      	ldr	r5, [r0, #100]	; 0x64
 8003776:	6884      	ldr	r4, [r0, #8]
 8003778:	6901      	ldr	r1, [r0, #16]
 800377a:	f1b5 5f00 	cmp.w	r5, #536870912	; 0x20000000
 800377e:	d137      	bne.n	80037f0 <UART_Start_Receive_IT+0xc8>
 8003780:	f8b0 5068 	ldrh.w	r5, [r0, #104]	; 0x68
 8003784:	4295      	cmp	r5, r2
 8003786:	d833      	bhi.n	80037f0 <UART_Start_Receive_IT+0xc8>
 8003788:	f5b4 5f80 	cmp.w	r4, #4096	; 0x1000
 800378c:	d120      	bne.n	80037d0 <UART_Start_Receive_IT+0xa8>
 800378e:	4a27      	ldr	r2, [pc, #156]	; (800382c <UART_Start_Receive_IT+0x104>)
 8003790:	4c27      	ldr	r4, [pc, #156]	; (8003830 <UART_Start_Receive_IT+0x108>)
 8003792:	2900      	cmp	r1, #0
 8003794:	bf18      	it	ne
 8003796:	4622      	movne	r2, r4
 8003798:	6742      	str	r2, [r0, #116]	; 0x74
 800379a:	b1d9      	cbz	r1, 80037d4 <UART_Start_Receive_IT+0xac>
 800379c:	e853 2f00 	ldrex	r2, [r3]
 80037a0:	f442 7280 	orr.w	r2, r2, #256	; 0x100
 80037a4:	e843 2100 	strex	r1, r2, [r3]
 80037a8:	e7f7      	b.n	800379a <UART_Start_Receive_IT+0x72>
 80037aa:	23ff      	movs	r3, #255	; 0xff
 80037ac:	e7cd      	b.n	800374a <UART_Start_Receive_IT+0x22>
 80037ae:	b923      	cbnz	r3, 80037ba <UART_Start_Receive_IT+0x92>
 80037b0:	6903      	ldr	r3, [r0, #16]
 80037b2:	2b00      	cmp	r3, #0
 80037b4:	d0f9      	beq.n	80037aa <UART_Start_Receive_IT+0x82>
 80037b6:	237f      	movs	r3, #127	; 0x7f
 80037b8:	e7c7      	b.n	800374a <UART_Start_Receive_IT+0x22>
 80037ba:	f1b3 5f80 	cmp.w	r3, #268435456	; 0x10000000
 80037be:	d104      	bne.n	80037ca <UART_Start_Receive_IT+0xa2>
 80037c0:	6903      	ldr	r3, [r0, #16]
 80037c2:	2b00      	cmp	r3, #0
 80037c4:	d0f7      	beq.n	80037b6 <UART_Start_Receive_IT+0x8e>
 80037c6:	233f      	movs	r3, #63	; 0x3f
 80037c8:	e7bf      	b.n	800374a <UART_Start_Receive_IT+0x22>
 80037ca:	f8a0 1060 	strh.w	r1, [r0, #96]	; 0x60
 80037ce:	e7be      	b.n	800374e <UART_Start_Receive_IT+0x26>
 80037d0:	4a17      	ldr	r2, [pc, #92]	; (8003830 <UART_Start_Receive_IT+0x108>)
 80037d2:	e7e1      	b.n	8003798 <UART_Start_Receive_IT+0x70>
 80037d4:	f103 0208 	add.w	r2, r3, #8
 80037d8:	e852 2f00 	ldrex	r2, [r2]
 80037dc:	f042 5280 	orr.w	r2, r2, #268435456	; 0x10000000
 80037e0:	f103 0008 	add.w	r0, r3, #8
 80037e4:	e840 2100 	strex	r1, r2, [r0]
 80037e8:	2900      	cmp	r1, #0
 80037ea:	d1f3      	bne.n	80037d4 <UART_Start_Receive_IT+0xac>
 80037ec:	2000      	movs	r0, #0
 80037ee:	bd30      	pop	{r4, r5, pc}
 80037f0:	f5b4 5f80 	cmp.w	r4, #4096	; 0x1000
 80037f4:	d10f      	bne.n	8003816 <UART_Start_Receive_IT+0xee>
 80037f6:	4a0f      	ldr	r2, [pc, #60]	; (8003834 <UART_Start_Receive_IT+0x10c>)
 80037f8:	4c0f      	ldr	r4, [pc, #60]	; (8003838 <UART_Start_Receive_IT+0x110>)
 80037fa:	2900      	cmp	r1, #0
 80037fc:	bf18      	it	ne
 80037fe:	4622      	movne	r2, r4
 8003800:	6742      	str	r2, [r0, #116]	; 0x74
 8003802:	b151      	cbz	r1, 800381a <UART_Start_Receive_IT+0xf2>
 8003804:	e853 2f00 	ldrex	r2, [r3]
 8003808:	f442 7290 	orr.w	r2, r2, #288	; 0x120
 800380c:	e843 2100 	strex	r1, r2, [r3]
 8003810:	2900      	cmp	r1, #0
 8003812:	d1f7      	bne.n	8003804 <UART_Start_Receive_IT+0xdc>
 8003814:	e7ea      	b.n	80037ec <UART_Start_Receive_IT+0xc4>
 8003816:	4a08      	ldr	r2, [pc, #32]	; (8003838 <UART_Start_Receive_IT+0x110>)
 8003818:	e7f2      	b.n	8003800 <UART_Start_Receive_IT+0xd8>
 800381a:	e853 2f00 	ldrex	r2, [r3]
 800381e:	f042 0220 	orr.w	r2, r2, #32
 8003822:	e843 2100 	strex	r1, r2, [r3]
 8003826:	2900      	cmp	r1, #0
 8003828:	d1f7      	bne.n	800381a <UART_Start_Receive_IT+0xf2>
 800382a:	e7df      	b.n	80037ec <UART_Start_Receive_IT+0xc4>
 800382c:	08003591 	.word	0x08003591
 8003830:	080033f5 	.word	0x080033f5
 8003834:	08003331 	.word	0x08003331
 8003838:	08003265 	.word	0x08003265

0800383c <HAL_UART_Receive_IT>:
 800383c:	f8d0 308c 	ldr.w	r3, [r0, #140]	; 0x8c
 8003840:	2b20      	cmp	r3, #32
 8003842:	b430      	push	{r4, r5}
 8003844:	d115      	bne.n	8003872 <HAL_UART_Receive_IT+0x36>
 8003846:	b1b9      	cbz	r1, 8003878 <HAL_UART_Receive_IT+0x3c>
 8003848:	b1b2      	cbz	r2, 8003878 <HAL_UART_Receive_IT+0x3c>
 800384a:	2300      	movs	r3, #0
 800384c:	6804      	ldr	r4, [r0, #0]
 800384e:	66c3      	str	r3, [r0, #108]	; 0x6c
 8003850:	4b0a      	ldr	r3, [pc, #40]	; (800387c <HAL_UART_Receive_IT+0x40>)
 8003852:	429c      	cmp	r4, r3
 8003854:	d00a      	beq.n	800386c <HAL_UART_Receive_IT+0x30>
 8003856:	6863      	ldr	r3, [r4, #4]
 8003858:	021b      	lsls	r3, r3, #8
 800385a:	d507      	bpl.n	800386c <HAL_UART_Receive_IT+0x30>
 800385c:	e854 3f00 	ldrex	r3, [r4]
 8003860:	f043 6380 	orr.w	r3, r3, #67108864	; 0x4000000
 8003864:	e844 3500 	strex	r5, r3, [r4]
 8003868:	2d00      	cmp	r5, #0
 800386a:	d1f7      	bne.n	800385c <HAL_UART_Receive_IT+0x20>
 800386c:	bc30      	pop	{r4, r5}
 800386e:	f7ff bf5b 	b.w	8003728 <UART_Start_Receive_IT>
 8003872:	2002      	movs	r0, #2
 8003874:	bc30      	pop	{r4, r5}
 8003876:	4770      	bx	lr
 8003878:	2001      	movs	r0, #1
 800387a:	e7fb      	b.n	8003874 <HAL_UART_Receive_IT+0x38>
 800387c:	40008000 	.word	0x40008000

08003880 <HAL_UARTEx_WakeupCallback>:
 8003880:	4770      	bx	lr

08003882 <HAL_UARTEx_RxFifoFullCallback>:
 8003882:	4770      	bx	lr

08003884 <HAL_UARTEx_TxFifoEmptyCallback>:
 8003884:	4770      	bx	lr
	...

08003888 <aci_gap_set_non_discoverable>:
 8003888:	b510      	push	{r4, lr}
 800388a:	2400      	movs	r4, #0
 800388c:	b088      	sub	sp, #32
 800388e:	2218      	movs	r2, #24
 8003890:	4621      	mov	r1, r4
 8003892:	a802      	add	r0, sp, #8
 8003894:	f88d 4007 	strb.w	r4, [sp, #7]
 8003898:	f000 fe5e 	bl	8004558 <Osal_MemSet>
 800389c:	4b08      	ldr	r3, [pc, #32]	; (80038c0 <aci_gap_set_non_discoverable+0x38>)
 800389e:	9302      	str	r3, [sp, #8]
 80038a0:	f10d 0307 	add.w	r3, sp, #7
 80038a4:	9306      	str	r3, [sp, #24]
 80038a6:	4621      	mov	r1, r4
 80038a8:	2301      	movs	r3, #1
 80038aa:	a802      	add	r0, sp, #8
 80038ac:	9307      	str	r3, [sp, #28]
 80038ae:	f000 fccb 	bl	8004248 <hci_send_req>
 80038b2:	42a0      	cmp	r0, r4
 80038b4:	bfac      	ite	ge
 80038b6:	f89d 0007 	ldrbge.w	r0, [sp, #7]
 80038ba:	20ff      	movlt	r0, #255	; 0xff
 80038bc:	b008      	add	sp, #32
 80038be:	bd10      	pop	{r4, pc}
 80038c0:	0081003f 	.word	0x0081003f

080038c4 <aci_gap_set_discoverable>:
 80038c4:	e92d 4ff0 	stmdb	sp!, {r4, r5, r6, r7, r8, r9, sl, fp, lr}
 80038c8:	b0cb      	sub	sp, #300	; 0x12c
 80038ca:	469c      	mov	ip, r3
 80038cc:	f89d 6154 	ldrb.w	r6, [sp, #340]	; 0x154
 80038d0:	f89d 515c 	ldrb.w	r5, [sp, #348]	; 0x15c
 80038d4:	f8ad 202b 	strh.w	r2, [sp, #43]	; 0x2b
 80038d8:	f89d 2150 	ldrb.w	r2, [sp, #336]	; 0x150
 80038dc:	f88d 0028 	strb.w	r0, [sp, #40]	; 0x28
 80038e0:	ac0a      	add	r4, sp, #40	; 0x28
 80038e2:	f106 0308 	add.w	r3, r6, #8
 80038e6:	f04f 0900 	mov.w	r9, #0
 80038ea:	f8ad 1029 	strh.w	r1, [sp, #41]	; 0x29
 80038ee:	f88d 202e 	strb.w	r2, [sp, #46]	; 0x2e
 80038f2:	9956      	ldr	r1, [sp, #344]	; 0x158
 80038f4:	f88d c02d 	strb.w	ip, [sp, #45]	; 0x2d
 80038f8:	4632      	mov	r2, r6
 80038fa:	a80c      	add	r0, sp, #48	; 0x30
 80038fc:	eb04 0b03 	add.w	fp, r4, r3
 8003900:	9301      	str	r3, [sp, #4]
 8003902:	f88d 602f 	strb.w	r6, [sp, #47]	; 0x2f
 8003906:	f105 0709 	add.w	r7, r5, #9
 800390a:	f88d 900f 	strb.w	r9, [sp, #15]
 800390e:	f000 fe21 	bl	8004554 <Osal_MemCpy>
 8003912:	9b01      	ldr	r3, [sp, #4]
 8003914:	9958      	ldr	r1, [sp, #352]	; 0x160
 8003916:	54e5      	strb	r5, [r4, r3]
 8003918:	4437      	add	r7, r6
 800391a:	462a      	mov	r2, r5
 800391c:	f10b 0001 	add.w	r0, fp, #1
 8003920:	f000 fe18 	bl	8004554 <Osal_MemCpy>
 8003924:	eb04 0a07 	add.w	sl, r4, r7
 8003928:	f8bd 3164 	ldrh.w	r3, [sp, #356]	; 0x164
 800392c:	53e3      	strh	r3, [r4, r7]
 800392e:	f8bd 3168 	ldrh.w	r3, [sp, #360]	; 0x168
 8003932:	f8aa 3002 	strh.w	r3, [sl, #2]
 8003936:	2218      	movs	r2, #24
 8003938:	4649      	mov	r1, r9
 800393a:	3609      	adds	r6, #9
 800393c:	a804      	add	r0, sp, #16
 800393e:	f000 fe0b 	bl	8004558 <Osal_MemSet>
 8003942:	4435      	add	r5, r6
 8003944:	4b0a      	ldr	r3, [pc, #40]	; (8003970 <aci_gap_set_discoverable+0xac>)
 8003946:	9304      	str	r3, [sp, #16]
 8003948:	f10d 080f 	add.w	r8, sp, #15
 800394c:	2301      	movs	r3, #1
 800394e:	3504      	adds	r5, #4
 8003950:	4649      	mov	r1, r9
 8003952:	a804      	add	r0, sp, #16
 8003954:	e9cd 5807 	strd	r5, r8, [sp, #28]
 8003958:	9406      	str	r4, [sp, #24]
 800395a:	9309      	str	r3, [sp, #36]	; 0x24
 800395c:	f000 fc74 	bl	8004248 <hci_send_req>
 8003960:	4548      	cmp	r0, r9
 8003962:	bfac      	ite	ge
 8003964:	f89d 000f 	ldrbge.w	r0, [sp, #15]
 8003968:	20ff      	movlt	r0, #255	; 0xff
 800396a:	b04b      	add	sp, #300	; 0x12c
 800396c:	e8bd 8ff0 	ldmia.w	sp!, {r4, r5, r6, r7, r8, r9, sl, fp, pc}
 8003970:	0083003f 	.word	0x0083003f

08003974 <aci_gap_set_io_capability>:
 8003974:	b570      	push	{r4, r5, r6, lr}
 8003976:	b0c8      	sub	sp, #288	; 0x120
 8003978:	2500      	movs	r5, #0
 800397a:	f88d 0020 	strb.w	r0, [sp, #32]
 800397e:	2218      	movs	r2, #24
 8003980:	4629      	mov	r1, r5
 8003982:	a802      	add	r0, sp, #8
 8003984:	f88d 5007 	strb.w	r5, [sp, #7]
 8003988:	f000 fde6 	bl	8004558 <Osal_MemSet>
 800398c:	4b0a      	ldr	r3, [pc, #40]	; (80039b8 <aci_gap_set_io_capability+0x44>)
 800398e:	9302      	str	r3, [sp, #8]
 8003990:	f10d 0407 	add.w	r4, sp, #7
 8003994:	2301      	movs	r3, #1
 8003996:	ae08      	add	r6, sp, #32
 8003998:	4629      	mov	r1, r5
 800399a:	a802      	add	r0, sp, #8
 800399c:	e9cd 3405 	strd	r3, r4, [sp, #20]
 80039a0:	9604      	str	r6, [sp, #16]
 80039a2:	9307      	str	r3, [sp, #28]
 80039a4:	f000 fc50 	bl	8004248 <hci_send_req>
 80039a8:	42a8      	cmp	r0, r5
 80039aa:	bfac      	ite	ge
 80039ac:	f89d 0007 	ldrbge.w	r0, [sp, #7]
 80039b0:	20ff      	movlt	r0, #255	; 0xff
 80039b2:	b048      	add	sp, #288	; 0x120
 80039b4:	bd70      	pop	{r4, r5, r6, pc}
 80039b6:	bf00      	nop
 80039b8:	0085003f 	.word	0x0085003f

080039bc <aci_gap_set_authentication_requirement>:
 80039bc:	b570      	push	{r4, r5, r6, lr}
 80039be:	b0c8      	sub	sp, #288	; 0x120
 80039c0:	2600      	movs	r6, #0
 80039c2:	f88d 3023 	strb.w	r3, [sp, #35]	; 0x23
 80039c6:	f89d 3130 	ldrb.w	r3, [sp, #304]	; 0x130
 80039ca:	f88d 3024 	strb.w	r3, [sp, #36]	; 0x24
 80039ce:	f89d 3134 	ldrb.w	r3, [sp, #308]	; 0x134
 80039d2:	f88d 3025 	strb.w	r3, [sp, #37]	; 0x25
 80039d6:	f89d 3138 	ldrb.w	r3, [sp, #312]	; 0x138
 80039da:	f88d 3026 	strb.w	r3, [sp, #38]	; 0x26
 80039de:	9b4f      	ldr	r3, [sp, #316]	; 0x13c
 80039e0:	f88d 0020 	strb.w	r0, [sp, #32]
 80039e4:	f88d 1021 	strb.w	r1, [sp, #33]	; 0x21
 80039e8:	f88d 2022 	strb.w	r2, [sp, #34]	; 0x22
 80039ec:	f8cd 3027 	str.w	r3, [sp, #39]	; 0x27
 80039f0:	2218      	movs	r2, #24
 80039f2:	f89d 3140 	ldrb.w	r3, [sp, #320]	; 0x140
 80039f6:	f88d 302b 	strb.w	r3, [sp, #43]	; 0x2b
 80039fa:	4631      	mov	r1, r6
 80039fc:	a802      	add	r0, sp, #8
 80039fe:	f88d 6007 	strb.w	r6, [sp, #7]
 8003a02:	f000 fda9 	bl	8004558 <Osal_MemSet>
 8003a06:	4b0b      	ldr	r3, [pc, #44]	; (8003a34 <aci_gap_set_authentication_requirement+0x78>)
 8003a08:	9302      	str	r3, [sp, #8]
 8003a0a:	f10d 0507 	add.w	r5, sp, #7
 8003a0e:	230c      	movs	r3, #12
 8003a10:	e9cd 3505 	strd	r3, r5, [sp, #20]
 8003a14:	ac08      	add	r4, sp, #32
 8003a16:	2301      	movs	r3, #1
 8003a18:	4631      	mov	r1, r6
 8003a1a:	a802      	add	r0, sp, #8
 8003a1c:	9404      	str	r4, [sp, #16]
 8003a1e:	9307      	str	r3, [sp, #28]
 8003a20:	f000 fc12 	bl	8004248 <hci_send_req>
 8003a24:	42b0      	cmp	r0, r6
 8003a26:	bfac      	ite	ge
 8003a28:	f89d 0007 	ldrbge.w	r0, [sp, #7]
 8003a2c:	20ff      	movlt	r0, #255	; 0xff
 8003a2e:	b048      	add	sp, #288	; 0x120
 8003a30:	bd70      	pop	{r4, r5, r6, pc}
 8003a32:	bf00      	nop
 8003a34:	0086003f 	.word	0x0086003f

08003a38 <aci_gap_pass_key_resp>:
 8003a38:	b570      	push	{r4, r5, r6, lr}
 8003a3a:	b0c8      	sub	sp, #288	; 0x120
 8003a3c:	2500      	movs	r5, #0
 8003a3e:	f8ad 0020 	strh.w	r0, [sp, #32]
 8003a42:	f8cd 1022 	str.w	r1, [sp, #34]	; 0x22
 8003a46:	2218      	movs	r2, #24
 8003a48:	4629      	mov	r1, r5
 8003a4a:	a802      	add	r0, sp, #8
 8003a4c:	f88d 5007 	strb.w	r5, [sp, #7]
 8003a50:	f000 fd82 	bl	8004558 <Osal_MemSet>
 8003a54:	4b0a      	ldr	r3, [pc, #40]	; (8003a80 <aci_gap_pass_key_resp+0x48>)
 8003a56:	9302      	str	r3, [sp, #8]
 8003a58:	f10d 0407 	add.w	r4, sp, #7
 8003a5c:	2306      	movs	r3, #6
 8003a5e:	e9cd 3405 	strd	r3, r4, [sp, #20]
 8003a62:	ae08      	add	r6, sp, #32
 8003a64:	2301      	movs	r3, #1
 8003a66:	4629      	mov	r1, r5
 8003a68:	a802      	add	r0, sp, #8
 8003a6a:	9604      	str	r6, [sp, #16]
 8003a6c:	9307      	str	r3, [sp, #28]
 8003a6e:	f000 fbeb 	bl	8004248 <hci_send_req>
 8003a72:	42a8      	cmp	r0, r5
 8003a74:	bfac      	ite	ge
 8003a76:	f89d 0007 	ldrbge.w	r0, [sp, #7]
 8003a7a:	20ff      	movlt	r0, #255	; 0xff
 8003a7c:	b048      	add	sp, #288	; 0x120
 8003a7e:	bd70      	pop	{r4, r5, r6, pc}
 8003a80:	0088003f 	.word	0x0088003f

08003a84 <aci_gap_init>:
 8003a84:	e92d 41f0 	stmdb	sp!, {r4, r5, r6, r7, r8, lr}
 8003a88:	b0c8      	sub	sp, #288	; 0x120
 8003a8a:	4680      	mov	r8, r0
 8003a8c:	460f      	mov	r7, r1
 8003a8e:	4616      	mov	r6, r2
 8003a90:	2100      	movs	r1, #0
 8003a92:	2207      	movs	r2, #7
 8003a94:	4668      	mov	r0, sp
 8003a96:	461d      	mov	r5, r3
 8003a98:	f000 fd5e 	bl	8004558 <Osal_MemSet>
 8003a9c:	2218      	movs	r2, #24
 8003a9e:	2100      	movs	r1, #0
 8003aa0:	a802      	add	r0, sp, #8
 8003aa2:	f88d 8020 	strb.w	r8, [sp, #32]
 8003aa6:	f88d 7021 	strb.w	r7, [sp, #33]	; 0x21
 8003aaa:	f88d 6022 	strb.w	r6, [sp, #34]	; 0x22
 8003aae:	f000 fd53 	bl	8004558 <Osal_MemSet>
 8003ab2:	4b14      	ldr	r3, [pc, #80]	; (8003b04 <aci_gap_init+0x80>)
 8003ab4:	9302      	str	r3, [sp, #8]
 8003ab6:	2303      	movs	r3, #3
 8003ab8:	9305      	str	r3, [sp, #20]
 8003aba:	ac08      	add	r4, sp, #32
 8003abc:	2307      	movs	r3, #7
 8003abe:	2100      	movs	r1, #0
 8003ac0:	a802      	add	r0, sp, #8
 8003ac2:	9404      	str	r4, [sp, #16]
 8003ac4:	f8cd d018 	str.w	sp, [sp, #24]
 8003ac8:	9307      	str	r3, [sp, #28]
 8003aca:	f000 fbbd 	bl	8004248 <hci_send_req>
 8003ace:	2800      	cmp	r0, #0
 8003ad0:	db16      	blt.n	8003b00 <aci_gap_init+0x7c>
 8003ad2:	f89d 0000 	ldrb.w	r0, [sp]
 8003ad6:	b980      	cbnz	r0, 8003afa <aci_gap_init+0x76>
 8003ad8:	9b00      	ldr	r3, [sp, #0]
 8003ada:	f89d 2004 	ldrb.w	r2, [sp, #4]
 8003ade:	f3c3 230f 	ubfx	r3, r3, #8, #16
 8003ae2:	802b      	strh	r3, [r5, #0]
 8003ae4:	f89d 3003 	ldrb.w	r3, [sp, #3]
 8003ae8:	ea43 2302 	orr.w	r3, r3, r2, lsl #8
 8003aec:	9a4e      	ldr	r2, [sp, #312]	; 0x138
 8003aee:	8013      	strh	r3, [r2, #0]
 8003af0:	9b01      	ldr	r3, [sp, #4]
 8003af2:	9a4f      	ldr	r2, [sp, #316]	; 0x13c
 8003af4:	f3c3 230f 	ubfx	r3, r3, #8, #16
 8003af8:	8013      	strh	r3, [r2, #0]
 8003afa:	b048      	add	sp, #288	; 0x120
 8003afc:	e8bd 81f0 	ldmia.w	sp!, {r4, r5, r6, r7, r8, pc}
 8003b00:	20ff      	movs	r0, #255	; 0xff
 8003b02:	e7fa      	b.n	8003afa <aci_gap_init+0x76>
 8003b04:	008a003f 	.word	0x008a003f

08003b08 <aci_gap_slave_security_req>:
 8003b08:	b570      	push	{r4, r5, r6, lr}
 8003b0a:	b0c8      	sub	sp, #288	; 0x120
 8003b0c:	2500      	movs	r5, #0
 8003b0e:	f8ad 0020 	strh.w	r0, [sp, #32]
 8003b12:	4629      	mov	r1, r5
 8003b14:	2218      	movs	r2, #24
 8003b16:	a802      	add	r0, sp, #8
 8003b18:	f88d 5007 	strb.w	r5, [sp, #7]
 8003b1c:	f000 fd1c 	bl	8004558 <Osal_MemSet>
 8003b20:	4a0b      	ldr	r2, [pc, #44]	; (8003b50 <aci_gap_slave_security_req+0x48>)
 8003b22:	230f      	movs	r3, #15
 8003b24:	e9cd 2302 	strd	r2, r3, [sp, #8]
 8003b28:	f10d 0407 	add.w	r4, sp, #7
 8003b2c:	2302      	movs	r3, #2
 8003b2e:	e9cd 3405 	strd	r3, r4, [sp, #20]
 8003b32:	ae08      	add	r6, sp, #32
 8003b34:	2301      	movs	r3, #1
 8003b36:	4629      	mov	r1, r5
 8003b38:	a802      	add	r0, sp, #8
 8003b3a:	9604      	str	r6, [sp, #16]
 8003b3c:	9307      	str	r3, [sp, #28]
 8003b3e:	f000 fb83 	bl	8004248 <hci_send_req>
 8003b42:	42a8      	cmp	r0, r5
 8003b44:	bfac      	ite	ge
 8003b46:	f89d 0007 	ldrbge.w	r0, [sp, #7]
 8003b4a:	20ff      	movlt	r0, #255	; 0xff
 8003b4c:	b048      	add	sp, #288	; 0x120
 8003b4e:	bd70      	pop	{r4, r5, r6, pc}
 8003b50:	008d003f 	.word	0x008d003f

08003b54 <aci_gap_update_adv_data>:
 8003b54:	b5f0      	push	{r4, r5, r6, r7, lr}
 8003b56:	b0c9      	sub	sp, #292	; 0x124
 8003b58:	2600      	movs	r6, #0
 8003b5a:	f88d 0020 	strb.w	r0, [sp, #32]
 8003b5e:	4602      	mov	r2, r0
 8003b60:	4604      	mov	r4, r0
 8003b62:	f10d 0021 	add.w	r0, sp, #33	; 0x21
 8003b66:	f88d 6007 	strb.w	r6, [sp, #7]
 8003b6a:	f000 fcf3 	bl	8004554 <Osal_MemCpy>
 8003b6e:	2218      	movs	r2, #24
 8003b70:	4631      	mov	r1, r6
 8003b72:	a802      	add	r0, sp, #8
 8003b74:	f000 fcf0 	bl	8004558 <Osal_MemSet>
 8003b78:	4b0a      	ldr	r3, [pc, #40]	; (8003ba4 <aci_gap_update_adv_data+0x50>)
 8003b7a:	9302      	str	r3, [sp, #8]
 8003b7c:	f10d 0507 	add.w	r5, sp, #7
 8003b80:	2301      	movs	r3, #1
 8003b82:	af08      	add	r7, sp, #32
 8003b84:	3401      	adds	r4, #1
 8003b86:	4631      	mov	r1, r6
 8003b88:	a802      	add	r0, sp, #8
 8003b8a:	e9cd 4505 	strd	r4, r5, [sp, #20]
 8003b8e:	9704      	str	r7, [sp, #16]
 8003b90:	9307      	str	r3, [sp, #28]
 8003b92:	f000 fb59 	bl	8004248 <hci_send_req>
 8003b96:	42b0      	cmp	r0, r6
 8003b98:	bfac      	ite	ge
 8003b9a:	f89d 0007 	ldrbge.w	r0, [sp, #7]
 8003b9e:	20ff      	movlt	r0, #255	; 0xff
 8003ba0:	b049      	add	sp, #292	; 0x124
 8003ba2:	bdf0      	pop	{r4, r5, r6, r7, pc}
 8003ba4:	008e003f 	.word	0x008e003f

08003ba8 <aci_gap_configure_whitelist>:
 8003ba8:	b510      	push	{r4, lr}
 8003baa:	2400      	movs	r4, #0
 8003bac:	b088      	sub	sp, #32
 8003bae:	2218      	movs	r2, #24
 8003bb0:	4621      	mov	r1, r4
 8003bb2:	a802      	add	r0, sp, #8
 8003bb4:	f88d 4007 	strb.w	r4, [sp, #7]
 8003bb8:	f000 fcce 	bl	8004558 <Osal_MemSet>
 8003bbc:	4b08      	ldr	r3, [pc, #32]	; (8003be0 <aci_gap_configure_whitelist+0x38>)
 8003bbe:	9302      	str	r3, [sp, #8]
 8003bc0:	f10d 0307 	add.w	r3, sp, #7
 8003bc4:	9306      	str	r3, [sp, #24]
 8003bc6:	4621      	mov	r1, r4
 8003bc8:	2301      	movs	r3, #1
 8003bca:	a802      	add	r0, sp, #8
 8003bcc:	9307      	str	r3, [sp, #28]
 8003bce:	f000 fb3b 	bl	8004248 <hci_send_req>
 8003bd2:	42a0      	cmp	r0, r4
 8003bd4:	bfac      	ite	ge
 8003bd6:	f89d 0007 	ldrbge.w	r0, [sp, #7]
 8003bda:	20ff      	movlt	r0, #255	; 0xff
 8003bdc:	b008      	add	sp, #32
 8003bde:	bd10      	pop	{r4, pc}
 8003be0:	0092003f 	.word	0x0092003f

08003be4 <aci_gap_clear_security_db>:
 8003be4:	b510      	push	{r4, lr}
 8003be6:	2400      	movs	r4, #0
 8003be8:	b088      	sub	sp, #32
 8003bea:	2218      	movs	r2, #24
 8003bec:	4621      	mov	r1, r4
 8003bee:	a802      	add	r0, sp, #8
 8003bf0:	f88d 4007 	strb.w	r4, [sp, #7]
 8003bf4:	f000 fcb0 	bl	8004558 <Osal_MemSet>
 8003bf8:	4b08      	ldr	r3, [pc, #32]	; (8003c1c <aci_gap_clear_security_db+0x38>)
 8003bfa:	9302      	str	r3, [sp, #8]
 8003bfc:	f10d 0307 	add.w	r3, sp, #7
 8003c00:	9306      	str	r3, [sp, #24]
 8003c02:	4621      	mov	r1, r4
 8003c04:	2301      	movs	r3, #1
 8003c06:	a802      	add	r0, sp, #8
 8003c08:	9307      	str	r3, [sp, #28]
 8003c0a:	f000 fb1d 	bl	8004248 <hci_send_req>
 8003c0e:	42a0      	cmp	r0, r4
 8003c10:	bfac      	ite	ge
 8003c12:	f89d 0007 	ldrbge.w	r0, [sp, #7]
 8003c16:	20ff      	movlt	r0, #255	; 0xff
 8003c18:	b008      	add	sp, #32
 8003c1a:	bd10      	pop	{r4, pc}
 8003c1c:	0094003f 	.word	0x0094003f

08003c20 <aci_gap_allow_rebond>:
 8003c20:	b570      	push	{r4, r5, r6, lr}
 8003c22:	b0c8      	sub	sp, #288	; 0x120
 8003c24:	2500      	movs	r5, #0
 8003c26:	f8ad 0020 	strh.w	r0, [sp, #32]
 8003c2a:	2218      	movs	r2, #24
 8003c2c:	4629      	mov	r1, r5
 8003c2e:	a802      	add	r0, sp, #8
 8003c30:	f88d 5007 	strb.w	r5, [sp, #7]
 8003c34:	f000 fc90 	bl	8004558 <Osal_MemSet>
 8003c38:	4b0a      	ldr	r3, [pc, #40]	; (8003c64 <aci_gap_allow_rebond+0x44>)
 8003c3a:	9302      	str	r3, [sp, #8]
 8003c3c:	f10d 0407 	add.w	r4, sp, #7
 8003c40:	2302      	movs	r3, #2
 8003c42:	e9cd 3405 	strd	r3, r4, [sp, #20]
 8003c46:	ae08      	add	r6, sp, #32
 8003c48:	2301      	movs	r3, #1
 8003c4a:	4629      	mov	r1, r5
 8003c4c:	a802      	add	r0, sp, #8
 8003c4e:	9604      	str	r6, [sp, #16]
 8003c50:	9307      	str	r3, [sp, #28]
 8003c52:	f000 faf9 	bl	8004248 <hci_send_req>
 8003c56:	42a8      	cmp	r0, r5
 8003c58:	bfac      	ite	ge
 8003c5a:	f89d 0007 	ldrbge.w	r0, [sp, #7]
 8003c5e:	20ff      	movlt	r0, #255	; 0xff
 8003c60:	b048      	add	sp, #288	; 0x120
 8003c62:	bd70      	pop	{r4, r5, r6, pc}
 8003c64:	0095003f 	.word	0x0095003f

08003c68 <aci_gap_numeric_comparison_value_confirm_yesno>:
 8003c68:	b570      	push	{r4, r5, r6, lr}
 8003c6a:	b0c8      	sub	sp, #288	; 0x120
 8003c6c:	2500      	movs	r5, #0
 8003c6e:	f8ad 0020 	strh.w	r0, [sp, #32]
 8003c72:	f88d 1022 	strb.w	r1, [sp, #34]	; 0x22
 8003c76:	2218      	movs	r2, #24
 8003c78:	4629      	mov	r1, r5
 8003c7a:	a802      	add	r0, sp, #8
 8003c7c:	f88d 5007 	strb.w	r5, [sp, #7]
 8003c80:	f000 fc6a 	bl	8004558 <Osal_MemSet>
 8003c84:	4b0a      	ldr	r3, [pc, #40]	; (8003cb0 <aci_gap_numeric_comparison_value_confirm_yesno+0x48>)
 8003c86:	9302      	str	r3, [sp, #8]
 8003c88:	f10d 0407 	add.w	r4, sp, #7
 8003c8c:	2303      	movs	r3, #3
 8003c8e:	e9cd 3405 	strd	r3, r4, [sp, #20]
 8003c92:	ae08      	add	r6, sp, #32
 8003c94:	2301      	movs	r3, #1
 8003c96:	4629      	mov	r1, r5
 8003c98:	a802      	add	r0, sp, #8
 8003c9a:	9604      	str	r6, [sp, #16]
 8003c9c:	9307      	str	r3, [sp, #28]
 8003c9e:	f000 fad3 	bl	8004248 <hci_send_req>
 8003ca2:	42a8      	cmp	r0, r5
 8003ca4:	bfac      	ite	ge
 8003ca6:	f89d 0007 	ldrbge.w	r0, [sp, #7]
 8003caa:	20ff      	movlt	r0, #255	; 0xff
 8003cac:	b048      	add	sp, #288	; 0x120
 8003cae:	bd70      	pop	{r4, r5, r6, pc}
 8003cb0:	00a5003f 	.word	0x00a5003f

08003cb4 <aci_gatt_init>:
 8003cb4:	b510      	push	{r4, lr}
 8003cb6:	2400      	movs	r4, #0
 8003cb8:	b088      	sub	sp, #32
 8003cba:	2218      	movs	r2, #24
 8003cbc:	4621      	mov	r1, r4
 8003cbe:	a802      	add	r0, sp, #8
 8003cc0:	f88d 4007 	strb.w	r4, [sp, #7]
 8003cc4:	f000 fc48 	bl	8004558 <Osal_MemSet>
 8003cc8:	4b08      	ldr	r3, [pc, #32]	; (8003cec <aci_gatt_init+0x38>)
 8003cca:	9302      	str	r3, [sp, #8]
 8003ccc:	f10d 0307 	add.w	r3, sp, #7
 8003cd0:	9306      	str	r3, [sp, #24]
 8003cd2:	4621      	mov	r1, r4
 8003cd4:	2301      	movs	r3, #1
 8003cd6:	a802      	add	r0, sp, #8
 8003cd8:	9307      	str	r3, [sp, #28]
 8003cda:	f000 fab5 	bl	8004248 <hci_send_req>
 8003cde:	42a0      	cmp	r0, r4
 8003ce0:	bfac      	ite	ge
 8003ce2:	f89d 0007 	ldrbge.w	r0, [sp, #7]
 8003ce6:	20ff      	movlt	r0, #255	; 0xff
 8003ce8:	b008      	add	sp, #32
 8003cea:	bd10      	pop	{r4, pc}
 8003cec:	0101003f 	.word	0x0101003f

08003cf0 <aci_gatt_add_service>:
 8003cf0:	e92d 4ff0 	stmdb	sp!, {r4, r5, r6, r7, r8, r9, sl, fp, lr}
 8003cf4:	2801      	cmp	r0, #1
 8003cf6:	b0c9      	sub	sp, #292	; 0x124
 8003cf8:	4604      	mov	r4, r0
 8003cfa:	468a      	mov	sl, r1
 8003cfc:	4691      	mov	r9, r2
 8003cfe:	461f      	mov	r7, r3
 8003d00:	d03b      	beq.n	8003d7a <aci_gatt_add_service+0x8a>
 8003d02:	2802      	cmp	r0, #2
 8003d04:	bf0c      	ite	eq
 8003d06:	f04f 0811 	moveq.w	r8, #17
 8003d0a:	f04f 0801 	movne.w	r8, #1
 8003d0e:	ad01      	add	r5, sp, #4
 8003d10:	2203      	movs	r2, #3
 8003d12:	2100      	movs	r1, #0
 8003d14:	4628      	mov	r0, r5
 8003d16:	ae08      	add	r6, sp, #32
 8003d18:	f000 fc1e 	bl	8004558 <Osal_MemSet>
 8003d1c:	2c01      	cmp	r4, #1
 8003d1e:	7034      	strb	r4, [r6, #0]
 8003d20:	d02e      	beq.n	8003d80 <aci_gatt_add_service+0x90>
 8003d22:	2c02      	cmp	r4, #2
 8003d24:	d12e      	bne.n	8003d84 <aci_gatt_add_service+0x94>
 8003d26:	2410      	movs	r4, #16
 8003d28:	eb06 0b08 	add.w	fp, r6, r8
 8003d2c:	4622      	mov	r2, r4
 8003d2e:	4651      	mov	r1, sl
 8003d30:	f10d 0021 	add.w	r0, sp, #33	; 0x21
 8003d34:	f000 fc0e 	bl	8004554 <Osal_MemCpy>
 8003d38:	f806 9008 	strb.w	r9, [r6, r8]
 8003d3c:	2218      	movs	r2, #24
 8003d3e:	2100      	movs	r1, #0
 8003d40:	f88b 7001 	strb.w	r7, [fp, #1]
 8003d44:	a802      	add	r0, sp, #8
 8003d46:	f000 fc07 	bl	8004558 <Osal_MemSet>
 8003d4a:	4b10      	ldr	r3, [pc, #64]	; (8003d8c <aci_gatt_add_service+0x9c>)
 8003d4c:	9302      	str	r3, [sp, #8]
 8003d4e:	3403      	adds	r4, #3
 8003d50:	2303      	movs	r3, #3
 8003d52:	2100      	movs	r1, #0
 8003d54:	a802      	add	r0, sp, #8
 8003d56:	e9cd 4505 	strd	r4, r5, [sp, #20]
 8003d5a:	9604      	str	r6, [sp, #16]
 8003d5c:	9307      	str	r3, [sp, #28]
 8003d5e:	f000 fa73 	bl	8004248 <hci_send_req>
 8003d62:	2800      	cmp	r0, #0
 8003d64:	db10      	blt.n	8003d88 <aci_gatt_add_service+0x98>
 8003d66:	7828      	ldrb	r0, [r5, #0]
 8003d68:	b920      	cbnz	r0, 8003d74 <aci_gatt_add_service+0x84>
 8003d6a:	682b      	ldr	r3, [r5, #0]
 8003d6c:	9a52      	ldr	r2, [sp, #328]	; 0x148
 8003d6e:	f3c3 230f 	ubfx	r3, r3, #8, #16
 8003d72:	8013      	strh	r3, [r2, #0]
 8003d74:	b049      	add	sp, #292	; 0x124
 8003d76:	e8bd 8ff0 	ldmia.w	sp!, {r4, r5, r6, r7, r8, r9, sl, fp, pc}
 8003d7a:	f04f 0803 	mov.w	r8, #3
 8003d7e:	e7c6      	b.n	8003d0e <aci_gatt_add_service+0x1e>
 8003d80:	2402      	movs	r4, #2
 8003d82:	e7d1      	b.n	8003d28 <aci_gatt_add_service+0x38>
 8003d84:	2097      	movs	r0, #151	; 0x97
 8003d86:	e7f5      	b.n	8003d74 <aci_gatt_add_service+0x84>
 8003d88:	20ff      	movs	r0, #255	; 0xff
 8003d8a:	e7f3      	b.n	8003d74 <aci_gatt_add_service+0x84>
 8003d8c:	0102003f 	.word	0x0102003f

08003d90 <aci_gatt_add_char>:
 8003d90:	e92d 43f0 	stmdb	sp!, {r4, r5, r6, r7, r8, r9, lr}
 8003d94:	2901      	cmp	r1, #1
 8003d96:	b0c9      	sub	sp, #292	; 0x124
 8003d98:	4606      	mov	r6, r0
 8003d9a:	460c      	mov	r4, r1
 8003d9c:	4691      	mov	r9, r2
 8003d9e:	4698      	mov	r8, r3
 8003da0:	d047      	beq.n	8003e32 <aci_gatt_add_char+0xa2>
 8003da2:	2902      	cmp	r1, #2
 8003da4:	bf0c      	ite	eq
 8003da6:	2713      	moveq	r7, #19
 8003da8:	2703      	movne	r7, #3
 8003daa:	ad08      	add	r5, sp, #32
 8003dac:	2203      	movs	r2, #3
 8003dae:	2100      	movs	r1, #0
 8003db0:	a801      	add	r0, sp, #4
 8003db2:	f000 fbd1 	bl	8004558 <Osal_MemSet>
 8003db6:	2c01      	cmp	r4, #1
 8003db8:	802e      	strh	r6, [r5, #0]
 8003dba:	70ac      	strb	r4, [r5, #2]
 8003dbc:	d03b      	beq.n	8003e36 <aci_gatt_add_char+0xa6>
 8003dbe:	2c02      	cmp	r4, #2
 8003dc0:	d13b      	bne.n	8003e3a <aci_gatt_add_char+0xaa>
 8003dc2:	2410      	movs	r4, #16
 8003dc4:	19ee      	adds	r6, r5, r7
 8003dc6:	4622      	mov	r2, r4
 8003dc8:	4649      	mov	r1, r9
 8003dca:	f10d 0023 	add.w	r0, sp, #35	; 0x23
 8003dce:	f000 fbc1 	bl	8004554 <Osal_MemCpy>
 8003dd2:	f89d 3140 	ldrb.w	r3, [sp, #320]	; 0x140
 8003dd6:	f825 8007 	strh.w	r8, [r5, r7]
 8003dda:	70b3      	strb	r3, [r6, #2]
 8003ddc:	f89d 3144 	ldrb.w	r3, [sp, #324]	; 0x144
 8003de0:	70f3      	strb	r3, [r6, #3]
 8003de2:	f89d 3148 	ldrb.w	r3, [sp, #328]	; 0x148
 8003de6:	7133      	strb	r3, [r6, #4]
 8003de8:	f89d 314c 	ldrb.w	r3, [sp, #332]	; 0x14c
 8003dec:	7173      	strb	r3, [r6, #5]
 8003dee:	f89d 3150 	ldrb.w	r3, [sp, #336]	; 0x150
 8003df2:	71b3      	strb	r3, [r6, #6]
 8003df4:	2218      	movs	r2, #24
 8003df6:	2100      	movs	r1, #0
 8003df8:	a802      	add	r0, sp, #8
 8003dfa:	f000 fbad 	bl	8004558 <Osal_MemSet>
 8003dfe:	340a      	adds	r4, #10
 8003e00:	4b10      	ldr	r3, [pc, #64]	; (8003e44 <aci_gatt_add_char+0xb4>)
 8003e02:	9302      	str	r3, [sp, #8]
 8003e04:	9405      	str	r4, [sp, #20]
 8003e06:	2303      	movs	r3, #3
 8003e08:	ac01      	add	r4, sp, #4
 8003e0a:	2100      	movs	r1, #0
 8003e0c:	a802      	add	r0, sp, #8
 8003e0e:	9504      	str	r5, [sp, #16]
 8003e10:	9406      	str	r4, [sp, #24]
 8003e12:	9307      	str	r3, [sp, #28]
 8003e14:	f000 fa18 	bl	8004248 <hci_send_req>
 8003e18:	2800      	cmp	r0, #0
 8003e1a:	db10      	blt.n	8003e3e <aci_gatt_add_char+0xae>
 8003e1c:	f89d 0004 	ldrb.w	r0, [sp, #4]
 8003e20:	b920      	cbnz	r0, 8003e2c <aci_gatt_add_char+0x9c>
 8003e22:	9b01      	ldr	r3, [sp, #4]
 8003e24:	9a55      	ldr	r2, [sp, #340]	; 0x154
 8003e26:	f3c3 230f 	ubfx	r3, r3, #8, #16
 8003e2a:	8013      	strh	r3, [r2, #0]
 8003e2c:	b049      	add	sp, #292	; 0x124
 8003e2e:	e8bd 83f0 	ldmia.w	sp!, {r4, r5, r6, r7, r8, r9, pc}
 8003e32:	2705      	movs	r7, #5
 8003e34:	e7b9      	b.n	8003daa <aci_gatt_add_char+0x1a>
 8003e36:	2402      	movs	r4, #2
 8003e38:	e7c4      	b.n	8003dc4 <aci_gatt_add_char+0x34>
 8003e3a:	2097      	movs	r0, #151	; 0x97
 8003e3c:	e7f6      	b.n	8003e2c <aci_gatt_add_char+0x9c>
 8003e3e:	20ff      	movs	r0, #255	; 0xff
 8003e40:	e7f4      	b.n	8003e2c <aci_gatt_add_char+0x9c>
 8003e42:	bf00      	nop
 8003e44:	0104003f 	.word	0x0104003f

08003e48 <aci_gatt_update_char_value>:
 8003e48:	b5f0      	push	{r4, r5, r6, r7, lr}
 8003e4a:	b0c9      	sub	sp, #292	; 0x124
 8003e4c:	2700      	movs	r7, #0
 8003e4e:	f8ad 0020 	strh.w	r0, [sp, #32]
 8003e52:	f8ad 1022 	strh.w	r1, [sp, #34]	; 0x22
 8003e56:	f88d 2024 	strb.w	r2, [sp, #36]	; 0x24
 8003e5a:	994e      	ldr	r1, [sp, #312]	; 0x138
 8003e5c:	f88d 3025 	strb.w	r3, [sp, #37]	; 0x25
 8003e60:	461a      	mov	r2, r3
 8003e62:	f10d 0026 	add.w	r0, sp, #38	; 0x26
 8003e66:	461c      	mov	r4, r3
 8003e68:	f88d 7007 	strb.w	r7, [sp, #7]
 8003e6c:	f000 fb72 	bl	8004554 <Osal_MemCpy>
 8003e70:	2218      	movs	r2, #24
 8003e72:	4639      	mov	r1, r7
 8003e74:	a802      	add	r0, sp, #8
 8003e76:	f000 fb6f 	bl	8004558 <Osal_MemSet>
 8003e7a:	4b0b      	ldr	r3, [pc, #44]	; (8003ea8 <aci_gatt_update_char_value+0x60>)
 8003e7c:	9302      	str	r3, [sp, #8]
 8003e7e:	f10d 0607 	add.w	r6, sp, #7
 8003e82:	2301      	movs	r3, #1
 8003e84:	ad08      	add	r5, sp, #32
 8003e86:	3406      	adds	r4, #6
 8003e88:	4639      	mov	r1, r7
 8003e8a:	a802      	add	r0, sp, #8
 8003e8c:	e9cd 4605 	strd	r4, r6, [sp, #20]
 8003e90:	9504      	str	r5, [sp, #16]
 8003e92:	9307      	str	r3, [sp, #28]
 8003e94:	f000 f9d8 	bl	8004248 <hci_send_req>
 8003e98:	42b8      	cmp	r0, r7
 8003e9a:	bfac      	ite	ge
 8003e9c:	f89d 0007 	ldrbge.w	r0, [sp, #7]
 8003ea0:	20ff      	movlt	r0, #255	; 0xff
 8003ea2:	b049      	add	sp, #292	; 0x124
 8003ea4:	bdf0      	pop	{r4, r5, r6, r7, pc}
 8003ea6:	bf00      	nop
 8003ea8:	0106003f 	.word	0x0106003f

08003eac <aci_gatt_write_resp>:
 8003eac:	b5f0      	push	{r4, r5, r6, r7, lr}
 8003eae:	b0c9      	sub	sp, #292	; 0x124
 8003eb0:	2700      	movs	r7, #0
 8003eb2:	f89d 5138 	ldrb.w	r5, [sp, #312]	; 0x138
 8003eb6:	f8ad 0020 	strh.w	r0, [sp, #32]
 8003eba:	f8ad 1022 	strh.w	r1, [sp, #34]	; 0x22
 8003ebe:	f88d 2024 	strb.w	r2, [sp, #36]	; 0x24
 8003ec2:	994f      	ldr	r1, [sp, #316]	; 0x13c
 8003ec4:	f88d 3025 	strb.w	r3, [sp, #37]	; 0x25
 8003ec8:	462a      	mov	r2, r5
 8003eca:	f10d 0027 	add.w	r0, sp, #39	; 0x27
 8003ece:	f88d 5026 	strb.w	r5, [sp, #38]	; 0x26
 8003ed2:	f88d 7007 	strb.w	r7, [sp, #7]
 8003ed6:	f000 fb3d 	bl	8004554 <Osal_MemCpy>
 8003eda:	2218      	movs	r2, #24
 8003edc:	4639      	mov	r1, r7
 8003ede:	a802      	add	r0, sp, #8
 8003ee0:	f000 fb3a 	bl	8004558 <Osal_MemSet>
 8003ee4:	4b0a      	ldr	r3, [pc, #40]	; (8003f10 <aci_gatt_write_resp+0x64>)
 8003ee6:	9302      	str	r3, [sp, #8]
 8003ee8:	f10d 0607 	add.w	r6, sp, #7
 8003eec:	2301      	movs	r3, #1
 8003eee:	ac08      	add	r4, sp, #32
 8003ef0:	3507      	adds	r5, #7
 8003ef2:	4639      	mov	r1, r7
 8003ef4:	a802      	add	r0, sp, #8
 8003ef6:	e9cd 5605 	strd	r5, r6, [sp, #20]
 8003efa:	9404      	str	r4, [sp, #16]
 8003efc:	9307      	str	r3, [sp, #28]
 8003efe:	f000 f9a3 	bl	8004248 <hci_send_req>
 8003f02:	42b8      	cmp	r0, r7
 8003f04:	bfac      	ite	ge
 8003f06:	f89d 0007 	ldrbge.w	r0, [sp, #7]
 8003f0a:	20ff      	movlt	r0, #255	; 0xff
 8003f0c:	b049      	add	sp, #292	; 0x124
 8003f0e:	bdf0      	pop	{r4, r5, r6, r7, pc}
 8003f10:	0126003f 	.word	0x0126003f

08003f14 <aci_hal_write_config_data>:
 8003f14:	b5f0      	push	{r4, r5, r6, r7, lr}
 8003f16:	b0c9      	sub	sp, #292	; 0x124
 8003f18:	460c      	mov	r4, r1
 8003f1a:	2600      	movs	r6, #0
 8003f1c:	4611      	mov	r1, r2
 8003f1e:	f88d 0020 	strb.w	r0, [sp, #32]
 8003f22:	4622      	mov	r2, r4
 8003f24:	f10d 0022 	add.w	r0, sp, #34	; 0x22
 8003f28:	f88d 4021 	strb.w	r4, [sp, #33]	; 0x21
 8003f2c:	f88d 6007 	strb.w	r6, [sp, #7]
 8003f30:	f000 fb10 	bl	8004554 <Osal_MemCpy>
 8003f34:	2218      	movs	r2, #24
 8003f36:	4631      	mov	r1, r6
 8003f38:	a802      	add	r0, sp, #8
 8003f3a:	f000 fb0d 	bl	8004558 <Osal_MemSet>
 8003f3e:	4b0b      	ldr	r3, [pc, #44]	; (8003f6c <aci_hal_write_config_data+0x58>)
 8003f40:	9302      	str	r3, [sp, #8]
 8003f42:	f10d 0507 	add.w	r5, sp, #7
 8003f46:	2301      	movs	r3, #1
 8003f48:	af08      	add	r7, sp, #32
 8003f4a:	3402      	adds	r4, #2
 8003f4c:	4631      	mov	r1, r6
 8003f4e:	a802      	add	r0, sp, #8
 8003f50:	e9cd 4505 	strd	r4, r5, [sp, #20]
 8003f54:	9704      	str	r7, [sp, #16]
 8003f56:	9307      	str	r3, [sp, #28]
 8003f58:	f000 f976 	bl	8004248 <hci_send_req>
 8003f5c:	42b0      	cmp	r0, r6
 8003f5e:	bfac      	ite	ge
 8003f60:	f89d 0007 	ldrbge.w	r0, [sp, #7]
 8003f64:	20ff      	movlt	r0, #255	; 0xff
 8003f66:	b049      	add	sp, #292	; 0x124
 8003f68:	bdf0      	pop	{r4, r5, r6, r7, pc}
 8003f6a:	bf00      	nop
 8003f6c:	000c003f 	.word	0x000c003f

08003f70 <aci_hal_set_tx_power_level>:
 8003f70:	b570      	push	{r4, r5, r6, lr}
 8003f72:	b0c8      	sub	sp, #288	; 0x120
 8003f74:	2500      	movs	r5, #0
 8003f76:	f88d 0020 	strb.w	r0, [sp, #32]
 8003f7a:	f88d 1021 	strb.w	r1, [sp, #33]	; 0x21
 8003f7e:	2218      	movs	r2, #24
 8003f80:	4629      	mov	r1, r5
 8003f82:	a802      	add	r0, sp, #8
 8003f84:	f88d 5007 	strb.w	r5, [sp, #7]
 8003f88:	f000 fae6 	bl	8004558 <Osal_MemSet>
 8003f8c:	4b0a      	ldr	r3, [pc, #40]	; (8003fb8 <aci_hal_set_tx_power_level+0x48>)
 8003f8e:	9302      	str	r3, [sp, #8]
 8003f90:	f10d 0407 	add.w	r4, sp, #7
 8003f94:	2302      	movs	r3, #2
 8003f96:	e9cd 3405 	strd	r3, r4, [sp, #20]
 8003f9a:	ae08      	add	r6, sp, #32
 8003f9c:	2301      	movs	r3, #1
 8003f9e:	4629      	mov	r1, r5
 8003fa0:	a802      	add	r0, sp, #8
 8003fa2:	9604      	str	r6, [sp, #16]
 8003fa4:	9307      	str	r3, [sp, #28]
 8003fa6:	f000 f94f 	bl	8004248 <hci_send_req>
 8003faa:	42a8      	cmp	r0, r5
 8003fac:	bfac      	ite	ge
 8003fae:	f89d 0007 	ldrbge.w	r0, [sp, #7]
 8003fb2:	20ff      	movlt	r0, #255	; 0xff
 8003fb4:	b048      	add	sp, #288	; 0x120
 8003fb6:	bd70      	pop	{r4, r5, r6, pc}
 8003fb8:	000f003f 	.word	0x000f003f

08003fbc <hci_reset>:
 8003fbc:	b510      	push	{r4, lr}
 8003fbe:	2400      	movs	r4, #0
 8003fc0:	b088      	sub	sp, #32
 8003fc2:	2218      	movs	r2, #24
 8003fc4:	4621      	mov	r1, r4
 8003fc6:	a802      	add	r0, sp, #8
 8003fc8:	f88d 4007 	strb.w	r4, [sp, #7]
 8003fcc:	f000 fac4 	bl	8004558 <Osal_MemSet>
 8003fd0:	f04f 1303 	mov.w	r3, #196611	; 0x30003
 8003fd4:	9302      	str	r3, [sp, #8]
 8003fd6:	f10d 0307 	add.w	r3, sp, #7
 8003fda:	9306      	str	r3, [sp, #24]
 8003fdc:	4621      	mov	r1, r4
 8003fde:	2301      	movs	r3, #1
 8003fe0:	a802      	add	r0, sp, #8
 8003fe2:	9307      	str	r3, [sp, #28]
 8003fe4:	f000 f930 	bl	8004248 <hci_send_req>
 8003fe8:	42a0      	cmp	r0, r4
 8003fea:	bfac      	ite	ge
 8003fec:	f89d 0007 	ldrbge.w	r0, [sp, #7]
 8003ff0:	20ff      	movlt	r0, #255	; 0xff
 8003ff2:	b008      	add	sp, #32
 8003ff4:	bd10      	pop	{r4, pc}
	...

08003ff8 <hci_le_read_phy>:
 8003ff8:	b5f0      	push	{r4, r5, r6, r7, lr}
 8003ffa:	b0c9      	sub	sp, #292	; 0x124
 8003ffc:	4606      	mov	r6, r0
 8003ffe:	460d      	mov	r5, r1
 8004000:	4614      	mov	r4, r2
 8004002:	2100      	movs	r1, #0
 8004004:	2205      	movs	r2, #5
 8004006:	4668      	mov	r0, sp
 8004008:	f000 faa6 	bl	8004558 <Osal_MemSet>
 800400c:	2218      	movs	r2, #24
 800400e:	2100      	movs	r1, #0
 8004010:	a802      	add	r0, sp, #8
 8004012:	f8ad 6020 	strh.w	r6, [sp, #32]
 8004016:	f000 fa9f 	bl	8004558 <Osal_MemSet>
 800401a:	4b0e      	ldr	r3, [pc, #56]	; (8004054 <hci_le_read_phy+0x5c>)
 800401c:	9302      	str	r3, [sp, #8]
 800401e:	2302      	movs	r3, #2
 8004020:	9305      	str	r3, [sp, #20]
 8004022:	af08      	add	r7, sp, #32
 8004024:	2305      	movs	r3, #5
 8004026:	2100      	movs	r1, #0
 8004028:	a802      	add	r0, sp, #8
 800402a:	9704      	str	r7, [sp, #16]
 800402c:	f8cd d018 	str.w	sp, [sp, #24]
 8004030:	9307      	str	r3, [sp, #28]
 8004032:	f000 f909 	bl	8004248 <hci_send_req>
 8004036:	2800      	cmp	r0, #0
 8004038:	db0a      	blt.n	8004050 <hci_le_read_phy+0x58>
 800403a:	f89d 0000 	ldrb.w	r0, [sp]
 800403e:	b928      	cbnz	r0, 800404c <hci_le_read_phy+0x54>
 8004040:	f89d 3003 	ldrb.w	r3, [sp, #3]
 8004044:	702b      	strb	r3, [r5, #0]
 8004046:	f89d 3004 	ldrb.w	r3, [sp, #4]
 800404a:	7023      	strb	r3, [r4, #0]
 800404c:	b049      	add	sp, #292	; 0x124
 800404e:	bdf0      	pop	{r4, r5, r6, r7, pc}
 8004050:	20ff      	movs	r0, #255	; 0xff
 8004052:	e7fb      	b.n	800404c <hci_le_read_phy+0x54>
 8004054:	00300008 	.word	0x00300008

08004058 <hci_le_set_default_phy>:
 8004058:	b570      	push	{r4, r5, r6, lr}
 800405a:	b0c8      	sub	sp, #288	; 0x120
 800405c:	2600      	movs	r6, #0
 800405e:	f88d 0020 	strb.w	r0, [sp, #32]
 8004062:	f88d 1021 	strb.w	r1, [sp, #33]	; 0x21
 8004066:	f88d 2022 	strb.w	r2, [sp, #34]	; 0x22
 800406a:	4631      	mov	r1, r6
 800406c:	2218      	movs	r2, #24
 800406e:	a802      	add	r0, sp, #8
 8004070:	f88d 6007 	strb.w	r6, [sp, #7]
 8004074:	f000 fa70 	bl	8004558 <Osal_MemSet>
 8004078:	4b0a      	ldr	r3, [pc, #40]	; (80040a4 <hci_le_set_default_phy+0x4c>)
 800407a:	9302      	str	r3, [sp, #8]
 800407c:	f10d 0507 	add.w	r5, sp, #7
 8004080:	2303      	movs	r3, #3
 8004082:	e9cd 3505 	strd	r3, r5, [sp, #20]
 8004086:	ac08      	add	r4, sp, #32
 8004088:	2301      	movs	r3, #1
 800408a:	4631      	mov	r1, r6
 800408c:	a802      	add	r0, sp, #8
 800408e:	9404      	str	r4, [sp, #16]
 8004090:	9307      	str	r3, [sp, #28]
 8004092:	f000 f8d9 	bl	8004248 <hci_send_req>
 8004096:	42b0      	cmp	r0, r6
 8004098:	bfac      	ite	ge
 800409a:	f89d 0007 	ldrbge.w	r0, [sp, #7]
 800409e:	20ff      	movlt	r0, #255	; 0xff
 80040a0:	b048      	add	sp, #288	; 0x120
 80040a2:	bd70      	pop	{r4, r5, r6, pc}
 80040a4:	00310008 	.word	0x00310008

080040a8 <hci_le_set_phy>:
 80040a8:	b570      	push	{r4, r5, r6, lr}
 80040aa:	b0c8      	sub	sp, #288	; 0x120
 80040ac:	2600      	movs	r6, #0
 80040ae:	f8ad 0020 	strh.w	r0, [sp, #32]
 80040b2:	f88d 1022 	strb.w	r1, [sp, #34]	; 0x22
 80040b6:	f88d 2023 	strb.w	r2, [sp, #35]	; 0x23
 80040ba:	f88d 3024 	strb.w	r3, [sp, #36]	; 0x24
 80040be:	4631      	mov	r1, r6
 80040c0:	f8bd 3130 	ldrh.w	r3, [sp, #304]	; 0x130
 80040c4:	f8ad 3025 	strh.w	r3, [sp, #37]	; 0x25
 80040c8:	2218      	movs	r2, #24
 80040ca:	a802      	add	r0, sp, #8
 80040cc:	f88d 6007 	strb.w	r6, [sp, #7]
 80040d0:	f000 fa42 	bl	8004558 <Osal_MemSet>
 80040d4:	4a0b      	ldr	r2, [pc, #44]	; (8004104 <hci_le_set_phy+0x5c>)
 80040d6:	230f      	movs	r3, #15
 80040d8:	e9cd 2302 	strd	r2, r3, [sp, #8]
 80040dc:	f10d 0507 	add.w	r5, sp, #7
 80040e0:	2307      	movs	r3, #7
 80040e2:	e9cd 3505 	strd	r3, r5, [sp, #20]
 80040e6:	ac08      	add	r4, sp, #32
 80040e8:	2301      	movs	r3, #1
 80040ea:	4631      	mov	r1, r6
 80040ec:	a802      	add	r0, sp, #8
 80040ee:	9404      	str	r4, [sp, #16]
 80040f0:	9307      	str	r3, [sp, #28]
 80040f2:	f000 f8a9 	bl	8004248 <hci_send_req>
 80040f6:	42b0      	cmp	r0, r6
 80040f8:	bfac      	ite	ge
 80040fa:	f89d 0007 	ldrbge.w	r0, [sp, #7]
 80040fe:	20ff      	movlt	r0, #255	; 0xff
 8004100:	b048      	add	sp, #288	; 0x120
 8004102:	bd70      	pop	{r4, r5, r6, pc}
 8004104:	00320008 	.word	0x00320008

08004108 <DIS_Init>:
 8004108:	b530      	push	{r4, r5, lr}
 800410a:	b089      	sub	sp, #36	; 0x24
 800410c:	4c12      	ldr	r4, [pc, #72]	; (8004158 <DIS_Init+0x50>)
 800410e:	9400      	str	r4, [sp, #0]
 8004110:	2201      	movs	r2, #1
 8004112:	f641 030a 	movw	r3, #6154	; 0x180a
 8004116:	2500      	movs	r5, #0
 8004118:	f8ad 301e 	strh.w	r3, [sp, #30]
 800411c:	f10d 011e 	add.w	r1, sp, #30
 8004120:	2303      	movs	r3, #3
 8004122:	4610      	mov	r0, r2
 8004124:	6025      	str	r5, [r4, #0]
 8004126:	f7ff fde3 	bl	8003cf0 <aci_gatt_add_service>
 800412a:	f642 2329 	movw	r3, #10793	; 0x2a29
 800412e:	f8ad 301e 	strh.w	r3, [sp, #30]
 8004132:	2101      	movs	r1, #1
 8004134:	230a      	movs	r3, #10
 8004136:	e9cd 3103 	strd	r3, r1, [sp, #12]
 800413a:	f834 0b02 	ldrh.w	r0, [r4], #2
 800413e:	9405      	str	r4, [sp, #20]
 8004140:	2302      	movs	r3, #2
 8004142:	9300      	str	r3, [sp, #0]
 8004144:	e9cd 5501 	strd	r5, r5, [sp, #4]
 8004148:	2320      	movs	r3, #32
 800414a:	f10d 021e 	add.w	r2, sp, #30
 800414e:	f7ff fe1f 	bl	8003d90 <aci_gatt_add_char>
 8004152:	b009      	add	sp, #36	; 0x24
 8004154:	bd30      	pop	{r4, r5, pc}
 8004156:	bf00      	nop
 8004158:	20000038 	.word	0x20000038

0800415c <DIS_UpdateChar>:
 800415c:	f642 2329 	movw	r3, #10793	; 0x2a29
 8004160:	4298      	cmp	r0, r3
 8004162:	b507      	push	{r0, r1, r2, lr}
 8004164:	d10b      	bne.n	800417e <DIS_UpdateChar+0x22>
 8004166:	680b      	ldr	r3, [r1, #0]
 8004168:	4806      	ldr	r0, [pc, #24]	; (8004184 <DIS_UpdateChar+0x28>)
 800416a:	9300      	str	r3, [sp, #0]
 800416c:	790b      	ldrb	r3, [r1, #4]
 800416e:	8841      	ldrh	r1, [r0, #2]
 8004170:	8800      	ldrh	r0, [r0, #0]
 8004172:	2200      	movs	r2, #0
 8004174:	f7ff fe68 	bl	8003e48 <aci_gatt_update_char_value>
 8004178:	b003      	add	sp, #12
 800417a:	f85d fb04 	ldr.w	pc, [sp], #4
 800417e:	2097      	movs	r0, #151	; 0x97
 8004180:	e7fa      	b.n	8004178 <DIS_UpdateChar+0x1c>
 8004182:	bf00      	nop
 8004184:	20000038 	.word	0x20000038

08004188 <hci_init>:
 8004188:	b57f      	push	{r0, r1, r2, r3, r4, r5, r6, lr}
 800418a:	4d0f      	ldr	r5, [pc, #60]	; (80041c8 <hci_init+0x40>)
 800418c:	4b0f      	ldr	r3, [pc, #60]	; (80041cc <hci_init+0x44>)
 800418e:	684a      	ldr	r2, [r1, #4]
 8004190:	4e0f      	ldr	r6, [pc, #60]	; (80041d0 <hci_init+0x48>)
 8004192:	61e8      	str	r0, [r5, #28]
 8004194:	460c      	mov	r4, r1
 8004196:	4628      	mov	r0, r5
 8004198:	601a      	str	r2, [r3, #0]
 800419a:	f000 f8d3 	bl	8004344 <hci_register_io_bus>
 800419e:	480d      	ldr	r0, [pc, #52]	; (80041d4 <hci_init+0x4c>)
 80041a0:	6824      	ldr	r4, [r4, #0]
 80041a2:	f000 fb0f 	bl	80047c4 <LST_init_head>
 80041a6:	4630      	mov	r0, r6
 80041a8:	f840 4b04 	str.w	r4, [r0], #4
 80041ac:	f000 fb0a 	bl	80047c4 <LST_init_head>
 80041b0:	2301      	movs	r3, #1
 80041b2:	7333      	strb	r3, [r6, #12]
 80041b4:	682b      	ldr	r3, [r5, #0]
 80041b6:	b123      	cbz	r3, 80041c2 <hci_init+0x3a>
 80041b8:	4a07      	ldr	r2, [pc, #28]	; (80041d8 <hci_init+0x50>)
 80041ba:	9402      	str	r4, [sp, #8]
 80041bc:	9200      	str	r2, [sp, #0]
 80041be:	4668      	mov	r0, sp
 80041c0:	4798      	blx	r3
 80041c2:	b004      	add	sp, #16
 80041c4:	bd70      	pop	{r4, r5, r6, pc}
 80041c6:	bf00      	nop
 80041c8:	2000056c 	.word	0x2000056c
 80041cc:	20000568 	.word	0x20000568
 80041d0:	2000003c 	.word	0x2000003c
 80041d4:	20000560 	.word	0x20000560
 80041d8:	08004311 	.word	0x08004311

080041dc <hci_user_evt_proc>:
 80041dc:	b51f      	push	{r0, r1, r2, r3, r4, lr}
 80041de:	4c17      	ldr	r4, [pc, #92]	; (800423c <hci_user_evt_proc+0x60>)
 80041e0:	1d20      	adds	r0, r4, #4
 80041e2:	f000 faf2 	bl	80047ca <LST_is_empty>
 80041e6:	b9b0      	cbnz	r0, 8004216 <hci_user_evt_proc+0x3a>
 80041e8:	7b23      	ldrb	r3, [r4, #12]
 80041ea:	b1a3      	cbz	r3, 8004216 <hci_user_evt_proc+0x3a>
 80041ec:	a901      	add	r1, sp, #4
 80041ee:	1d20      	adds	r0, r4, #4
 80041f0:	f000 fb18 	bl	8004824 <LST_remove_head>
 80041f4:	4b12      	ldr	r3, [pc, #72]	; (8004240 <hci_user_evt_proc+0x64>)
 80041f6:	69da      	ldr	r2, [r3, #28]
 80041f8:	2301      	movs	r3, #1
 80041fa:	b1ba      	cbz	r2, 800422c <hci_user_evt_proc+0x50>
 80041fc:	9901      	ldr	r1, [sp, #4]
 80041fe:	f88d 3008 	strb.w	r3, [sp, #8]
 8004202:	9103      	str	r1, [sp, #12]
 8004204:	a802      	add	r0, sp, #8
 8004206:	4790      	blx	r2
 8004208:	f89d 3008 	ldrb.w	r3, [sp, #8]
 800420c:	7323      	strb	r3, [r4, #12]
 800420e:	b17b      	cbz	r3, 8004230 <hci_user_evt_proc+0x54>
 8004210:	9801      	ldr	r0, [sp, #4]
 8004212:	f000 fc7d 	bl	8004b10 <TL_MM_EvtDone>
 8004216:	480b      	ldr	r0, [pc, #44]	; (8004244 <hci_user_evt_proc+0x68>)
 8004218:	f000 fad7 	bl	80047ca <LST_is_empty>
 800421c:	b920      	cbnz	r0, 8004228 <hci_user_evt_proc+0x4c>
 800421e:	7b23      	ldrb	r3, [r4, #12]
 8004220:	b113      	cbz	r3, 8004228 <hci_user_evt_proc+0x4c>
 8004222:	4808      	ldr	r0, [pc, #32]	; (8004244 <hci_user_evt_proc+0x68>)
 8004224:	f7fd f974 	bl	8001510 <hci_notify_asynch_evt>
 8004228:	b004      	add	sp, #16
 800422a:	bd10      	pop	{r4, pc}
 800422c:	7323      	strb	r3, [r4, #12]
 800422e:	e7ef      	b.n	8004210 <hci_user_evt_proc+0x34>
 8004230:	9901      	ldr	r1, [sp, #4]
 8004232:	1d20      	adds	r0, r4, #4
 8004234:	f000 fad3 	bl	80047de <LST_insert_head>
 8004238:	e7ed      	b.n	8004216 <hci_user_evt_proc+0x3a>
 800423a:	bf00      	nop
 800423c:	2000003c 	.word	0x2000003c
 8004240:	2000056c 	.word	0x2000056c
 8004244:	20000040 	.word	0x20000040

08004248 <hci_send_req>:
 8004248:	e92d 43f7 	stmdb	sp!, {r0, r1, r2, r4, r5, r6, r7, r8, r9, lr}
 800424c:	4e2c      	ldr	r6, [pc, #176]	; (8004300 <hci_send_req+0xb8>)
 800424e:	6833      	ldr	r3, [r6, #0]
 8004250:	4604      	mov	r4, r0
 8004252:	b10b      	cbz	r3, 8004258 <hci_send_req+0x10>
 8004254:	2000      	movs	r0, #0
 8004256:	4798      	blx	r3
 8004258:	8863      	ldrh	r3, [r4, #2]
 800425a:	8822      	ldrh	r2, [r4, #0]
 800425c:	4829      	ldr	r0, [pc, #164]	; (8004304 <hci_send_req+0xbc>)
 800425e:	f8df 90ac 	ldr.w	r9, [pc, #172]	; 800430c <hci_send_req+0xc4>
 8004262:	6800      	ldr	r0, [r0, #0]
 8004264:	f3c3 0309 	ubfx	r3, r3, #0, #10
 8004268:	ea43 2382 	orr.w	r3, r3, r2, lsl #10
 800426c:	e9d4 1202 	ldrd	r1, r2, [r4, #8]
 8004270:	300c      	adds	r0, #12
 8004272:	f820 3c03 	strh.w	r3, [r0, #-3]
 8004276:	f800 2c01 	strb.w	r2, [r0, #-1]
 800427a:	b2d2      	uxtb	r2, r2
 800427c:	fa1f f883 	uxth.w	r8, r3
 8004280:	f000 fe10 	bl	8004ea4 <memcpy>
 8004284:	4b20      	ldr	r3, [pc, #128]	; (8004308 <hci_send_req+0xc0>)
 8004286:	2100      	movs	r1, #0
 8004288:	691b      	ldr	r3, [r3, #16]
 800428a:	4608      	mov	r0, r1
 800428c:	4798      	blx	r3
 800428e:	f248 00e8 	movw	r0, #33000	; 0x80e8
 8004292:	f7fd f944 	bl	800151e <hci_cmd_resp_wait>
 8004296:	2700      	movs	r7, #0
 8004298:	4648      	mov	r0, r9
 800429a:	f000 fa96 	bl	80047ca <LST_is_empty>
 800429e:	b148      	cbz	r0, 80042b4 <hci_send_req+0x6c>
 80042a0:	2f00      	cmp	r7, #0
 80042a2:	d0f4      	beq.n	800428e <hci_send_req+0x46>
 80042a4:	6833      	ldr	r3, [r6, #0]
 80042a6:	b10b      	cbz	r3, 80042ac <hci_send_req+0x64>
 80042a8:	2001      	movs	r0, #1
 80042aa:	4798      	blx	r3
 80042ac:	2000      	movs	r0, #0
 80042ae:	b003      	add	sp, #12
 80042b0:	e8bd 83f0 	ldmia.w	sp!, {r4, r5, r6, r7, r8, r9, pc}
 80042b4:	a901      	add	r1, sp, #4
 80042b6:	4648      	mov	r0, r9
 80042b8:	f000 fab4 	bl	8004824 <LST_remove_head>
 80042bc:	9d01      	ldr	r5, [sp, #4]
 80042be:	7a6b      	ldrb	r3, [r5, #9]
 80042c0:	2b0f      	cmp	r3, #15
 80042c2:	d10b      	bne.n	80042dc <hci_send_req+0x94>
 80042c4:	f8b5 300d 	ldrh.w	r3, [r5, #13]
 80042c8:	4543      	cmp	r3, r8
 80042ca:	bf02      	ittt	eq
 80042cc:	6923      	ldreq	r3, [r4, #16]
 80042ce:	7aea      	ldrbeq	r2, [r5, #11]
 80042d0:	701a      	strbeq	r2, [r3, #0]
 80042d2:	7b2b      	ldrb	r3, [r5, #12]
 80042d4:	2b00      	cmp	r3, #0
 80042d6:	d0df      	beq.n	8004298 <hci_send_req+0x50>
 80042d8:	2701      	movs	r7, #1
 80042da:	e7dd      	b.n	8004298 <hci_send_req+0x50>
 80042dc:	89ab      	ldrh	r3, [r5, #12]
 80042de:	4543      	cmp	r3, r8
 80042e0:	d10c      	bne.n	80042fc <hci_send_req+0xb4>
 80042e2:	7aaa      	ldrb	r2, [r5, #10]
 80042e4:	6963      	ldr	r3, [r4, #20]
 80042e6:	6920      	ldr	r0, [r4, #16]
 80042e8:	3a03      	subs	r2, #3
 80042ea:	b2d2      	uxtb	r2, r2
 80042ec:	429a      	cmp	r2, r3
 80042ee:	bfa8      	it	ge
 80042f0:	461a      	movge	r2, r3
 80042f2:	6162      	str	r2, [r4, #20]
 80042f4:	f105 010e 	add.w	r1, r5, #14
 80042f8:	f000 fdd4 	bl	8004ea4 <memcpy>
 80042fc:	7aeb      	ldrb	r3, [r5, #11]
 80042fe:	e7e9      	b.n	80042d4 <hci_send_req+0x8c>
 8004300:	20000568 	.word	0x20000568
 8004304:	2000003c 	.word	0x2000003c
 8004308:	2000056c 	.word	0x2000056c
 800430c:	20000560 	.word	0x20000560

08004310 <TlEvtReceived>:
 8004310:	b508      	push	{r3, lr}
 8004312:	7a43      	ldrb	r3, [r0, #9]
 8004314:	3b0e      	subs	r3, #14
 8004316:	2b01      	cmp	r3, #1
 8004318:	4601      	mov	r1, r0
 800431a:	d806      	bhi.n	800432a <TlEvtReceived+0x1a>
 800431c:	4807      	ldr	r0, [pc, #28]	; (800433c <TlEvtReceived+0x2c>)
 800431e:	f000 fa6a 	bl	80047f6 <LST_insert_tail>
 8004322:	2000      	movs	r0, #0
 8004324:	f7fd f8f8 	bl	8001518 <hci_cmd_resp_release>
 8004328:	bd08      	pop	{r3, pc}
 800432a:	4805      	ldr	r0, [pc, #20]	; (8004340 <TlEvtReceived+0x30>)
 800432c:	f000 fa63 	bl	80047f6 <LST_insert_tail>
 8004330:	e8bd 4008 	ldmia.w	sp!, {r3, lr}
 8004334:	4802      	ldr	r0, [pc, #8]	; (8004340 <TlEvtReceived+0x30>)
 8004336:	f7fd b8eb 	b.w	8001510 <hci_notify_asynch_evt>
 800433a:	bf00      	nop
 800433c:	20000560 	.word	0x20000560
 8004340:	20000040 	.word	0x20000040

08004344 <hci_register_io_bus>:
 8004344:	4b02      	ldr	r3, [pc, #8]	; (8004350 <hci_register_io_bus+0xc>)
 8004346:	6003      	str	r3, [r0, #0]
 8004348:	4b02      	ldr	r3, [pc, #8]	; (8004354 <hci_register_io_bus+0x10>)
 800434a:	6103      	str	r3, [r0, #16]
 800434c:	4770      	bx	lr
 800434e:	bf00      	nop
 8004350:	08004999 	.word	0x08004999
 8004354:	080049e1 	.word	0x080049e1

08004358 <HeartRate_Event_Handler>:
 8004358:	b510      	push	{r4, lr}
 800435a:	7842      	ldrb	r2, [r0, #1]
 800435c:	2aff      	cmp	r2, #255	; 0xff
 800435e:	b086      	sub	sp, #24
 8004360:	4603      	mov	r3, r0
 8004362:	d140      	bne.n	80043e6 <HeartRate_Event_Handler+0x8e>
 8004364:	f8b0 2003 	ldrh.w	r2, [r0, #3]
 8004368:	f640 4101 	movw	r1, #3073	; 0xc01
 800436c:	428a      	cmp	r2, r1
 800436e:	d026      	beq.n	80043be <HeartRate_Event_Handler+0x66>
 8004370:	f640 4113 	movw	r1, #3091	; 0xc13
 8004374:	428a      	cmp	r2, r1
 8004376:	d136      	bne.n	80043e6 <HeartRate_Event_Handler+0x8e>
 8004378:	4a1c      	ldr	r2, [pc, #112]	; (80043ec <HeartRate_Event_Handler+0x94>)
 800437a:	f8b0 1007 	ldrh.w	r1, [r0, #7]
 800437e:	88d2      	ldrh	r2, [r2, #6]
 8004380:	3201      	adds	r2, #1
 8004382:	4291      	cmp	r1, r2
 8004384:	d12f      	bne.n	80043e6 <HeartRate_Event_Handler+0x8e>
 8004386:	7a84      	ldrb	r4, [r0, #10]
 8004388:	7a5a      	ldrb	r2, [r3, #9]
 800438a:	f8b0 0005 	ldrh.w	r0, [r0, #5]
 800438e:	330a      	adds	r3, #10
 8004390:	2c01      	cmp	r4, #1
 8004392:	e9cd 2300 	strd	r2, r3, [sp]
 8004396:	d10c      	bne.n	80043b2 <HeartRate_Event_Handler+0x5a>
 8004398:	2300      	movs	r3, #0
 800439a:	461a      	mov	r2, r3
 800439c:	f7ff fd86 	bl	8003eac <aci_gatt_write_resp>
 80043a0:	2300      	movs	r3, #0
 80043a2:	a802      	add	r0, sp, #8
 80043a4:	f88d 3008 	strb.w	r3, [sp, #8]
 80043a8:	f7fd f8f0 	bl	800158c <HRS_Notification>
 80043ac:	4620      	mov	r0, r4
 80043ae:	b006      	add	sp, #24
 80043b0:	bd10      	pop	{r4, pc}
 80043b2:	2380      	movs	r3, #128	; 0x80
 80043b4:	2201      	movs	r2, #1
 80043b6:	f7ff fd79 	bl	8003eac <aci_gatt_write_resp>
 80043ba:	2401      	movs	r4, #1
 80043bc:	e7f6      	b.n	80043ac <HeartRate_Event_Handler+0x54>
 80043be:	4a0b      	ldr	r2, [pc, #44]	; (80043ec <HeartRate_Event_Handler+0x94>)
 80043c0:	f8b0 1007 	ldrh.w	r1, [r0, #7]
 80043c4:	8852      	ldrh	r2, [r2, #2]
 80043c6:	3202      	adds	r2, #2
 80043c8:	4291      	cmp	r1, r2
 80043ca:	d10c      	bne.n	80043e6 <HeartRate_Event_Handler+0x8e>
 80043cc:	7b44      	ldrb	r4, [r0, #13]
 80043ce:	f014 0401 	ands.w	r4, r4, #1
 80043d2:	d001      	beq.n	80043d8 <HeartRate_Event_Handler+0x80>
 80043d4:	2301      	movs	r3, #1
 80043d6:	e7e4      	b.n	80043a2 <HeartRate_Event_Handler+0x4a>
 80043d8:	2302      	movs	r3, #2
 80043da:	a802      	add	r0, sp, #8
 80043dc:	f88d 3008 	strb.w	r3, [sp, #8]
 80043e0:	f7fd f8d4 	bl	800158c <HRS_Notification>
 80043e4:	e7e9      	b.n	80043ba <HeartRate_Event_Handler+0x62>
 80043e6:	2400      	movs	r4, #0
 80043e8:	e7e0      	b.n	80043ac <HeartRate_Event_Handler+0x54>
 80043ea:	bf00      	nop
 80043ec:	2000004a 	.word	0x2000004a

080043f0 <HRS_Init>:
 80043f0:	e92d 41f0 	stmdb	sp!, {r4, r5, r6, r7, r8, lr}
 80043f4:	4829      	ldr	r0, [pc, #164]	; (800449c <HRS_Init+0xac>)
 80043f6:	4c2a      	ldr	r4, [pc, #168]	; (80044a0 <HRS_Init+0xb0>)
 80043f8:	b088      	sub	sp, #32
 80043fa:	f000 fa61 	bl	80048c0 <SVCCTL_RegisterSvcHandler>
 80043fe:	2201      	movs	r2, #1
 8004400:	f641 030d 	movw	r3, #6157	; 0x180d
 8004404:	f8ad 301e 	strh.w	r3, [sp, #30]
 8004408:	9400      	str	r4, [sp, #0]
 800440a:	f10d 011e 	add.w	r1, sp, #30
 800440e:	2308      	movs	r3, #8
 8004410:	4610      	mov	r0, r2
 8004412:	f7ff fc6d 	bl	8003cf0 <aci_gatt_add_service>
 8004416:	f642 2337 	movw	r3, #10807	; 0x2a37
 800441a:	f8ad 301e 	strh.w	r3, [sp, #30]
 800441e:	4623      	mov	r3, r4
 8004420:	2601      	movs	r6, #1
 8004422:	f833 0b02 	ldrh.w	r0, [r3], #2
 8004426:	9305      	str	r3, [sp, #20]
 8004428:	2500      	movs	r5, #0
 800442a:	270a      	movs	r7, #10
 800442c:	2310      	movs	r3, #16
 800442e:	9300      	str	r3, [sp, #0]
 8004430:	f10d 021e 	add.w	r2, sp, #30
 8004434:	4631      	mov	r1, r6
 8004436:	e9cd 7603 	strd	r7, r6, [sp, #12]
 800443a:	e9cd 5501 	strd	r5, r5, [sp, #4]
 800443e:	2307      	movs	r3, #7
 8004440:	f7ff fca6 	bl	8003d90 <aci_gatt_add_char>
 8004444:	f642 2338 	movw	r3, #10808	; 0x2a38
 8004448:	f8ad 301e 	strh.w	r3, [sp, #30]
 800444c:	4623      	mov	r3, r4
 800444e:	f04f 0802 	mov.w	r8, #2
 8004452:	f833 0b04 	ldrh.w	r0, [r3], #4
 8004456:	9501      	str	r5, [sp, #4]
 8004458:	e9cd 5304 	strd	r5, r3, [sp, #16]
 800445c:	f10d 021e 	add.w	r2, sp, #30
 8004460:	4633      	mov	r3, r6
 8004462:	4631      	mov	r1, r6
 8004464:	e9cd 5702 	strd	r5, r7, [sp, #8]
 8004468:	f8cd 8000 	str.w	r8, [sp]
 800446c:	f7ff fc90 	bl	8003d90 <aci_gatt_add_char>
 8004470:	f834 0b06 	ldrh.w	r0, [r4], #6
 8004474:	9501      	str	r5, [sp, #4]
 8004476:	f642 2339 	movw	r3, #10809	; 0x2a39
 800447a:	f8ad 301e 	strh.w	r3, [sp, #30]
 800447e:	2308      	movs	r3, #8
 8004480:	9300      	str	r3, [sp, #0]
 8004482:	e9cd 5404 	strd	r5, r4, [sp, #16]
 8004486:	e9cd 8702 	strd	r8, r7, [sp, #8]
 800448a:	4633      	mov	r3, r6
 800448c:	f10d 021e 	add.w	r2, sp, #30
 8004490:	4631      	mov	r1, r6
 8004492:	f7ff fc7d 	bl	8003d90 <aci_gatt_add_char>
 8004496:	b008      	add	sp, #32
 8004498:	e8bd 81f0 	ldmia.w	sp!, {r4, r5, r6, r7, r8, pc}
 800449c:	08004359 	.word	0x08004359
 80044a0:	2000004a 	.word	0x2000004a

080044a4 <HRS_UpdateChar>:
 80044a4:	b51f      	push	{r0, r1, r2, r3, r4, lr}
 80044a6:	f642 2337 	movw	r3, #10807	; 0x2a37
 80044aa:	4298      	cmp	r0, r3
 80044ac:	d00d      	beq.n	80044ca <HRS_UpdateChar+0x26>
 80044ae:	f642 2338 	movw	r3, #10808	; 0x2a38
 80044b2:	4298      	cmp	r0, r3
 80044b4:	d14a      	bne.n	800454c <HRS_UpdateChar+0xa8>
 80044b6:	4826      	ldr	r0, [pc, #152]	; (8004550 <HRS_UpdateChar+0xac>)
 80044b8:	9100      	str	r1, [sp, #0]
 80044ba:	8881      	ldrh	r1, [r0, #4]
 80044bc:	2301      	movs	r3, #1
 80044be:	2200      	movs	r2, #0
 80044c0:	8800      	ldrh	r0, [r0, #0]
 80044c2:	f7ff fcc1 	bl	8003e48 <aci_gatt_update_char_value>
 80044c6:	b004      	add	sp, #16
 80044c8:	bd10      	pop	{r4, pc}
 80044ca:	7a4a      	ldrb	r2, [r1, #9]
 80044cc:	880b      	ldrh	r3, [r1, #0]
 80044ce:	7808      	ldrb	r0, [r1, #0]
 80044d0:	f88d 0009 	strb.w	r0, [sp, #9]
 80044d4:	07d4      	lsls	r4, r2, #31
 80044d6:	bf45      	ittet	mi
 80044d8:	0a1b      	lsrmi	r3, r3, #8
 80044da:	f88d 300a 	strbmi.w	r3, [sp, #10]
 80044de:	2302      	movpl	r3, #2
 80044e0:	2303      	movmi	r3, #3
 80044e2:	0710      	lsls	r0, r2, #28
 80044e4:	f88d 2008 	strb.w	r2, [sp, #8]
 80044e8:	d50f      	bpl.n	800450a <HRS_UpdateChar+0x66>
 80044ea:	f103 0410 	add.w	r4, r3, #16
 80044ee:	446c      	add	r4, sp
 80044f0:	8848      	ldrh	r0, [r1, #2]
 80044f2:	f804 0c08 	strb.w	r0, [r4, #-8]
 80044f6:	f10d 0c10 	add.w	ip, sp, #16
 80044fa:	1c5c      	adds	r4, r3, #1
 80044fc:	fa5c f484 	uxtab	r4, ip, r4
 8004500:	0a00      	lsrs	r0, r0, #8
 8004502:	3302      	adds	r3, #2
 8004504:	f804 0c08 	strb.w	r0, [r4, #-8]
 8004508:	b2db      	uxtb	r3, r3
 800450a:	06d2      	lsls	r2, r2, #27
 800450c:	d506      	bpl.n	800451c <HRS_UpdateChar+0x78>
 800450e:	7a0a      	ldrb	r2, [r1, #8]
 8004510:	eb03 0242 	add.w	r2, r3, r2, lsl #1
 8004514:	1d0c      	adds	r4, r1, #4
 8004516:	b2d2      	uxtb	r2, r2
 8004518:	4293      	cmp	r3, r2
 800451a:	d105      	bne.n	8004528 <HRS_UpdateChar+0x84>
 800451c:	aa02      	add	r2, sp, #8
 800451e:	480c      	ldr	r0, [pc, #48]	; (8004550 <HRS_UpdateChar+0xac>)
 8004520:	9200      	str	r2, [sp, #0]
 8004522:	8841      	ldrh	r1, [r0, #2]
 8004524:	2200      	movs	r2, #0
 8004526:	e7cb      	b.n	80044c0 <HRS_UpdateChar+0x1c>
 8004528:	f103 0010 	add.w	r0, r3, #16
 800452c:	4468      	add	r0, sp
 800452e:	f834 1b02 	ldrh.w	r1, [r4], #2
 8004532:	f800 1c08 	strb.w	r1, [r0, #-8]
 8004536:	f10d 0c10 	add.w	ip, sp, #16
 800453a:	1c58      	adds	r0, r3, #1
 800453c:	fa5c f080 	uxtab	r0, ip, r0
 8004540:	0a09      	lsrs	r1, r1, #8
 8004542:	3302      	adds	r3, #2
 8004544:	f800 1c08 	strb.w	r1, [r0, #-8]
 8004548:	b2db      	uxtb	r3, r3
 800454a:	e7e5      	b.n	8004518 <HRS_UpdateChar+0x74>
 800454c:	2000      	movs	r0, #0
 800454e:	e7ba      	b.n	80044c6 <HRS_UpdateChar+0x22>
 8004550:	2000004a 	.word	0x2000004a

08004554 <Osal_MemCpy>:
 8004554:	f000 bca6 	b.w	8004ea4 <memcpy>

08004558 <Osal_MemSet>:
 8004558:	f000 bcb2 	b.w	8004ec0 <memset>

0800455c <OTP_Read>:
 800455c:	4603      	mov	r3, r0
 800455e:	4a05      	ldr	r2, [pc, #20]	; (8004574 <OTP_Read+0x18>)
 8004560:	4805      	ldr	r0, [pc, #20]	; (8004578 <OTP_Read+0x1c>)
 8004562:	79c1      	ldrb	r1, [r0, #7]
 8004564:	4299      	cmp	r1, r3
 8004566:	d002      	beq.n	800456e <OTP_Read+0x12>
 8004568:	4290      	cmp	r0, r2
 800456a:	d101      	bne.n	8004570 <OTP_Read+0x14>
 800456c:	2000      	movs	r0, #0
 800456e:	4770      	bx	lr
 8004570:	3808      	subs	r0, #8
 8004572:	e7f6      	b.n	8004562 <OTP_Read+0x6>
 8004574:	1fff7000 	.word	0x1fff7000
 8004578:	1fff73f8 	.word	0x1fff73f8

0800457c <SHCI_C2_BLE_Init>:
 800457c:	b51f      	push	{r0, r1, r2, r3, r4, lr}
 800457e:	f100 020c 	add.w	r2, r0, #12
 8004582:	466b      	mov	r3, sp
 8004584:	212e      	movs	r1, #46	; 0x2e
 8004586:	f64f 4066 	movw	r0, #64614	; 0xfc66
 800458a:	f000 f8d5 	bl	8004738 <shci_send>
 800458e:	f89d 000e 	ldrb.w	r0, [sp, #14]
 8004592:	b005      	add	sp, #20
 8004594:	f85d fb04 	ldr.w	pc, [sp], #4

08004598 <SHCI_C2_DEBUG_Init>:
 8004598:	b51f      	push	{r0, r1, r2, r3, r4, lr}
 800459a:	f100 020c 	add.w	r2, r0, #12
 800459e:	466b      	mov	r3, sp
 80045a0:	210f      	movs	r1, #15
 80045a2:	f64f 4068 	movw	r0, #64616	; 0xfc68
 80045a6:	f000 f8c7 	bl	8004738 <shci_send>
 80045aa:	f89d 000e 	ldrb.w	r0, [sp, #14]
 80045ae:	b005      	add	sp, #20
 80045b0:	f85d fb04 	ldr.w	pc, [sp], #4

080045b4 <SHCI_C2_Config>:
 80045b4:	b51f      	push	{r0, r1, r2, r3, r4, lr}
 80045b6:	4602      	mov	r2, r0
 80045b8:	466b      	mov	r3, sp
 80045ba:	2110      	movs	r1, #16
 80045bc:	f64f 4075 	movw	r0, #64629	; 0xfc75
 80045c0:	f000 f8ba 	bl	8004738 <shci_send>
 80045c4:	f89d 000e 	ldrb.w	r0, [sp, #14]
 80045c8:	b005      	add	sp, #20
 80045ca:	f85d fb04 	ldr.w	pc, [sp], #4
	...

080045d0 <SHCI_GetWirelessFwInfo>:
 80045d0:	4b1c      	ldr	r3, [pc, #112]	; (8004644 <SHCI_GetWirelessFwInfo+0x74>)
 80045d2:	491d      	ldr	r1, [pc, #116]	; (8004648 <SHCI_GetWirelessFwInfo+0x78>)
 80045d4:	6bdb      	ldr	r3, [r3, #60]	; 0x3c
 80045d6:	009b      	lsls	r3, r3, #2
 80045d8:	b29b      	uxth	r3, r3
 80045da:	f103 5300 	add.w	r3, r3, #536870912	; 0x20000000
 80045de:	b570      	push	{r4, r5, r6, lr}
 80045e0:	f503 3340 	add.w	r3, r3, #196608	; 0x30000
 80045e4:	681a      	ldr	r2, [r3, #0]
 80045e6:	6816      	ldr	r6, [r2, #0]
 80045e8:	6953      	ldr	r3, [r2, #20]
 80045ea:	6994      	ldr	r4, [r2, #24]
 80045ec:	6915      	ldr	r5, [r2, #16]
 80045ee:	428e      	cmp	r6, r1
 80045f0:	bf1d      	ittte	ne
 80045f2:	4626      	movne	r6, r4
 80045f4:	461c      	movne	r4, r3
 80045f6:	462b      	movne	r3, r5
 80045f8:	68d1      	ldreq	r1, [r2, #12]
 80045fa:	bf1a      	itte	ne
 80045fc:	6851      	ldrne	r1, [r2, #4]
 80045fe:	6895      	ldrne	r5, [r2, #8]
 8004600:	69d6      	ldreq	r6, [r2, #28]
 8004602:	7246      	strb	r6, [r0, #9]
 8004604:	0e1a      	lsrs	r2, r3, #24
 8004606:	7002      	strb	r2, [r0, #0]
 8004608:	0c1a      	lsrs	r2, r3, #16
 800460a:	7042      	strb	r2, [r0, #1]
 800460c:	0a1a      	lsrs	r2, r3, #8
 800460e:	7082      	strb	r2, [r0, #2]
 8004610:	f3c3 1203 	ubfx	r2, r3, #4, #4
 8004614:	f003 030f 	and.w	r3, r3, #15
 8004618:	7103      	strb	r3, [r0, #4]
 800461a:	0e23      	lsrs	r3, r4, #24
 800461c:	7143      	strb	r3, [r0, #5]
 800461e:	0c23      	lsrs	r3, r4, #16
 8004620:	7183      	strb	r3, [r0, #6]
 8004622:	0a23      	lsrs	r3, r4, #8
 8004624:	71c3      	strb	r3, [r0, #7]
 8004626:	0e0b      	lsrs	r3, r1, #24
 8004628:	7283      	strb	r3, [r0, #10]
 800462a:	0c0b      	lsrs	r3, r1, #16
 800462c:	72c3      	strb	r3, [r0, #11]
 800462e:	0e2b      	lsrs	r3, r5, #24
 8004630:	7343      	strb	r3, [r0, #13]
 8004632:	0a09      	lsrs	r1, r1, #8
 8004634:	0c2b      	lsrs	r3, r5, #16
 8004636:	70c2      	strb	r2, [r0, #3]
 8004638:	7204      	strb	r4, [r0, #8]
 800463a:	7301      	strb	r1, [r0, #12]
 800463c:	7383      	strb	r3, [r0, #14]
 800463e:	73c5      	strb	r5, [r0, #15]
 8004640:	2000      	movs	r0, #0
 8004642:	bd70      	pop	{r4, r5, r6, pc}
 8004644:	58004000 	.word	0x58004000
 8004648:	a94656b9 	.word	0xa94656b9

0800464c <TlUserEvtReceived>:
 800464c:	b508      	push	{r3, lr}
 800464e:	4601      	mov	r1, r0
 8004650:	4803      	ldr	r0, [pc, #12]	; (8004660 <TlUserEvtReceived+0x14>)
 8004652:	f000 f8d0 	bl	80047f6 <LST_insert_tail>
 8004656:	e8bd 4008 	ldmia.w	sp!, {r3, lr}
 800465a:	4801      	ldr	r0, [pc, #4]	; (8004660 <TlUserEvtReceived+0x14>)
 800465c:	f7fb bfa6 	b.w	80005ac <shci_notify_asynch_evt>
 8004660:	20000078 	.word	0x20000078

08004664 <Cmd_SetStatus.constprop.0>:
 8004664:	4b03      	ldr	r3, [pc, #12]	; (8004674 <Cmd_SetStatus.constprop.0+0x10>)
 8004666:	2001      	movs	r0, #1
 8004668:	7218      	strb	r0, [r3, #8]
 800466a:	4b03      	ldr	r3, [pc, #12]	; (8004678 <Cmd_SetStatus.constprop.0+0x14>)
 800466c:	681b      	ldr	r3, [r3, #0]
 800466e:	b103      	cbz	r3, 8004672 <Cmd_SetStatus.constprop.0+0xe>
 8004670:	4718      	bx	r3
 8004672:	4770      	bx	lr
 8004674:	20000078 	.word	0x20000078
 8004678:	2000058c 	.word	0x2000058c

0800467c <shci_init>:
 800467c:	b57f      	push	{r0, r1, r2, r3, r4, r5, r6, lr}
 800467e:	4d0f      	ldr	r5, [pc, #60]	; (80046bc <shci_init+0x40>)
 8004680:	4b0f      	ldr	r3, [pc, #60]	; (80046c0 <shci_init+0x44>)
 8004682:	684a      	ldr	r2, [r1, #4]
 8004684:	61e8      	str	r0, [r5, #28]
 8004686:	460c      	mov	r4, r1
 8004688:	4628      	mov	r0, r5
 800468a:	601a      	str	r2, [r3, #0]
 800468c:	f000 f890 	bl	80047b0 <shci_register_io_bus>
 8004690:	6826      	ldr	r6, [r4, #0]
 8004692:	4c0c      	ldr	r4, [pc, #48]	; (80046c4 <shci_init+0x48>)
 8004694:	4620      	mov	r0, r4
 8004696:	60e6      	str	r6, [r4, #12]
 8004698:	f000 f894 	bl	80047c4 <LST_init_head>
 800469c:	f7ff ffe2 	bl	8004664 <Cmd_SetStatus.constprop.0>
 80046a0:	2301      	movs	r3, #1
 80046a2:	7423      	strb	r3, [r4, #16]
 80046a4:	682b      	ldr	r3, [r5, #0]
 80046a6:	b133      	cbz	r3, 80046b6 <shci_init+0x3a>
 80046a8:	4a07      	ldr	r2, [pc, #28]	; (80046c8 <shci_init+0x4c>)
 80046aa:	9201      	str	r2, [sp, #4]
 80046ac:	4a07      	ldr	r2, [pc, #28]	; (80046cc <shci_init+0x50>)
 80046ae:	9603      	str	r6, [sp, #12]
 80046b0:	9202      	str	r2, [sp, #8]
 80046b2:	a801      	add	r0, sp, #4
 80046b4:	4798      	blx	r3
 80046b6:	b004      	add	sp, #16
 80046b8:	bd70      	pop	{r4, r5, r6, pc}
 80046ba:	bf00      	nop
 80046bc:	20000590 	.word	0x20000590
 80046c0:	2000058c 	.word	0x2000058c
 80046c4:	20000078 	.word	0x20000078
 80046c8:	080047a5 	.word	0x080047a5
 80046cc:	0800464d 	.word	0x0800464d

080046d0 <shci_user_evt_proc>:
 80046d0:	b51f      	push	{r0, r1, r2, r3, r4, lr}
 80046d2:	4c17      	ldr	r4, [pc, #92]	; (8004730 <shci_user_evt_proc+0x60>)
 80046d4:	4620      	mov	r0, r4
 80046d6:	f000 f878 	bl	80047ca <LST_is_empty>
 80046da:	b9b0      	cbnz	r0, 800470a <shci_user_evt_proc+0x3a>
 80046dc:	7c23      	ldrb	r3, [r4, #16]
 80046de:	b1a3      	cbz	r3, 800470a <shci_user_evt_proc+0x3a>
 80046e0:	a901      	add	r1, sp, #4
 80046e2:	4620      	mov	r0, r4
 80046e4:	f000 f89e 	bl	8004824 <LST_remove_head>
 80046e8:	4b12      	ldr	r3, [pc, #72]	; (8004734 <shci_user_evt_proc+0x64>)
 80046ea:	69da      	ldr	r2, [r3, #28]
 80046ec:	2301      	movs	r3, #1
 80046ee:	b1ba      	cbz	r2, 8004720 <shci_user_evt_proc+0x50>
 80046f0:	9901      	ldr	r1, [sp, #4]
 80046f2:	f88d 3008 	strb.w	r3, [sp, #8]
 80046f6:	9103      	str	r1, [sp, #12]
 80046f8:	a802      	add	r0, sp, #8
 80046fa:	4790      	blx	r2
 80046fc:	f89d 3008 	ldrb.w	r3, [sp, #8]
 8004700:	7423      	strb	r3, [r4, #16]
 8004702:	b17b      	cbz	r3, 8004724 <shci_user_evt_proc+0x54>
 8004704:	9801      	ldr	r0, [sp, #4]
 8004706:	f000 fa03 	bl	8004b10 <TL_MM_EvtDone>
 800470a:	4809      	ldr	r0, [pc, #36]	; (8004730 <shci_user_evt_proc+0x60>)
 800470c:	f000 f85d 	bl	80047ca <LST_is_empty>
 8004710:	b920      	cbnz	r0, 800471c <shci_user_evt_proc+0x4c>
 8004712:	7c23      	ldrb	r3, [r4, #16]
 8004714:	b113      	cbz	r3, 800471c <shci_user_evt_proc+0x4c>
 8004716:	4806      	ldr	r0, [pc, #24]	; (8004730 <shci_user_evt_proc+0x60>)
 8004718:	f7fb ff48 	bl	80005ac <shci_notify_asynch_evt>
 800471c:	b004      	add	sp, #16
 800471e:	bd10      	pop	{r4, pc}
 8004720:	7423      	strb	r3, [r4, #16]
 8004722:	e7ef      	b.n	8004704 <shci_user_evt_proc+0x34>
 8004724:	9901      	ldr	r1, [sp, #4]
 8004726:	4620      	mov	r0, r4
 8004728:	f000 f859 	bl	80047de <LST_insert_head>
 800472c:	e7ed      	b.n	800470a <shci_user_evt_proc+0x3a>
 800472e:	bf00      	nop
 8004730:	20000078 	.word	0x20000078
 8004734:	20000590 	.word	0x20000590

08004738 <shci_send>:
 8004738:	e92d 41f3 	stmdb	sp!, {r0, r1, r4, r5, r6, r7, r8, lr}
 800473c:	461d      	mov	r5, r3
 800473e:	4b16      	ldr	r3, [pc, #88]	; (8004798 <shci_send+0x60>)
 8004740:	681b      	ldr	r3, [r3, #0]
 8004742:	460c      	mov	r4, r1
 8004744:	4607      	mov	r7, r0
 8004746:	4611      	mov	r1, r2
 8004748:	b11b      	cbz	r3, 8004752 <shci_send+0x1a>
 800474a:	2000      	movs	r0, #0
 800474c:	9201      	str	r2, [sp, #4]
 800474e:	4798      	blx	r3
 8004750:	9901      	ldr	r1, [sp, #4]
 8004752:	4e12      	ldr	r6, [pc, #72]	; (800479c <shci_send+0x64>)
 8004754:	68f0      	ldr	r0, [r6, #12]
 8004756:	4622      	mov	r2, r4
 8004758:	f04f 0800 	mov.w	r8, #0
 800475c:	f8a0 7009 	strh.w	r7, [r0, #9]
 8004760:	72c4      	strb	r4, [r0, #11]
 8004762:	300c      	adds	r0, #12
 8004764:	f886 8008 	strb.w	r8, [r6, #8]
 8004768:	f000 fb9c 	bl	8004ea4 <memcpy>
 800476c:	4b0c      	ldr	r3, [pc, #48]	; (80047a0 <shci_send+0x68>)
 800476e:	4641      	mov	r1, r8
 8004770:	691b      	ldr	r3, [r3, #16]
 8004772:	4640      	mov	r0, r8
 8004774:	4798      	blx	r3
 8004776:	f248 00e8 	movw	r0, #33000	; 0x80e8
 800477a:	f7fb ff1e 	bl	80005ba <shci_cmd_resp_wait>
 800477e:	68f1      	ldr	r1, [r6, #12]
 8004780:	788a      	ldrb	r2, [r1, #2]
 8004782:	f105 0008 	add.w	r0, r5, #8
 8004786:	3203      	adds	r2, #3
 8004788:	f000 fb8c 	bl	8004ea4 <memcpy>
 800478c:	b002      	add	sp, #8
 800478e:	e8bd 41f0 	ldmia.w	sp!, {r4, r5, r6, r7, r8, lr}
 8004792:	f7ff bf67 	b.w	8004664 <Cmd_SetStatus.constprop.0>
 8004796:	bf00      	nop
 8004798:	2000058c 	.word	0x2000058c
 800479c:	20000078 	.word	0x20000078
 80047a0:	20000590 	.word	0x20000590

080047a4 <TlCmdEvtReceived>:
 80047a4:	b508      	push	{r3, lr}
 80047a6:	2000      	movs	r0, #0
 80047a8:	f7fb ff04 	bl	80005b4 <shci_cmd_resp_release>
 80047ac:	bd08      	pop	{r3, pc}
	...

080047b0 <shci_register_io_bus>:
 80047b0:	4b02      	ldr	r3, [pc, #8]	; (80047bc <shci_register_io_bus+0xc>)
 80047b2:	6003      	str	r3, [r0, #0]
 80047b4:	4b02      	ldr	r3, [pc, #8]	; (80047c0 <shci_register_io_bus+0x10>)
 80047b6:	6103      	str	r3, [r0, #16]
 80047b8:	4770      	bx	lr
 80047ba:	bf00      	nop
 80047bc:	08004a35 	.word	0x08004a35
 80047c0:	08004a71 	.word	0x08004a71

080047c4 <LST_init_head>:
 80047c4:	6000      	str	r0, [r0, #0]
 80047c6:	6040      	str	r0, [r0, #4]
 80047c8:	4770      	bx	lr

080047ca <LST_is_empty>:
 80047ca:	f3ef 8310 	mrs	r3, PRIMASK
 80047ce:	b672      	cpsid	i
 80047d0:	6802      	ldr	r2, [r0, #0]
 80047d2:	1a82      	subs	r2, r0, r2
 80047d4:	4250      	negs	r0, r2
 80047d6:	4150      	adcs	r0, r2
 80047d8:	f383 8810 	msr	PRIMASK, r3
 80047dc:	4770      	bx	lr

080047de <LST_insert_head>:
 80047de:	f3ef 8310 	mrs	r3, PRIMASK
 80047e2:	b672      	cpsid	i
 80047e4:	6802      	ldr	r2, [r0, #0]
 80047e6:	600a      	str	r2, [r1, #0]
 80047e8:	6048      	str	r0, [r1, #4]
 80047ea:	6001      	str	r1, [r0, #0]
 80047ec:	680a      	ldr	r2, [r1, #0]
 80047ee:	6051      	str	r1, [r2, #4]
 80047f0:	f383 8810 	msr	PRIMASK, r3
 80047f4:	4770      	bx	lr

080047f6 <LST_insert_tail>:
 80047f6:	f3ef 8310 	mrs	r3, PRIMASK
 80047fa:	b672      	cpsid	i
 80047fc:	6008      	str	r0, [r1, #0]
 80047fe:	6842      	ldr	r2, [r0, #4]
 8004800:	604a      	str	r2, [r1, #4]
 8004802:	6041      	str	r1, [r0, #4]
 8004804:	684a      	ldr	r2, [r1, #4]
 8004806:	6011      	str	r1, [r2, #0]
 8004808:	f383 8810 	msr	PRIMASK, r3
 800480c:	4770      	bx	lr

0800480e <LST_remove_node>:
 800480e:	f3ef 8210 	mrs	r2, PRIMASK
 8004812:	b672      	cpsid	i
 8004814:	6843      	ldr	r3, [r0, #4]
 8004816:	6801      	ldr	r1, [r0, #0]
 8004818:	6019      	str	r1, [r3, #0]
 800481a:	6801      	ldr	r1, [r0, #0]
 800481c:	604b      	str	r3, [r1, #4]
 800481e:	f382 8810 	msr	PRIMASK, r2
 8004822:	4770      	bx	lr

08004824 <LST_remove_head>:
 8004824:	b510      	push	{r4, lr}
 8004826:	f3ef 8410 	mrs	r4, PRIMASK
 800482a:	b672      	cpsid	i
 800482c:	6803      	ldr	r3, [r0, #0]
 800482e:	600b      	str	r3, [r1, #0]
 8004830:	6800      	ldr	r0, [r0, #0]
 8004832:	f7ff ffec 	bl	800480e <LST_remove_node>
 8004836:	f384 8810 	msr	PRIMASK, r4
 800483a:	bd10      	pop	{r4, pc}

0800483c <BAS_Init>:
 800483c:	4770      	bx	lr

0800483e <BLS_Init>:
 800483e:	4770      	bx	lr

08004840 <CRS_STM_Init>:
 8004840:	4770      	bx	lr

08004842 <EDS_STM_Init>:
 8004842:	4770      	bx	lr

08004844 <HIDS_Init>:
 8004844:	4770      	bx	lr

08004846 <HTS_Init>:
 8004846:	4770      	bx	lr

08004848 <IAS_Init>:
 8004848:	4770      	bx	lr

0800484a <LLS_Init>:
 800484a:	4770      	bx	lr

0800484c <TPS_Init>:
 800484c:	4770      	bx	lr

0800484e <MOTENV_STM_Init>:
 800484e:	4770      	bx	lr

08004850 <P2PS_STM_Init>:
 8004850:	4770      	bx	lr

08004852 <ZDD_STM_Init>:
 8004852:	4770      	bx	lr

08004854 <OTAS_STM_Init>:
 8004854:	4770      	bx	lr

08004856 <MESH_Init>:
 8004856:	4770      	bx	lr

08004858 <BVOPUS_STM_Init>:
 8004858:	4770      	bx	lr

0800485a <SVCCTL_InitCustomSvc>:
 800485a:	4770      	bx	lr

0800485c <SVCCTL_SvcInit>:
 800485c:	b508      	push	{r3, lr}
 800485e:	f7ff ffed 	bl	800483c <BAS_Init>
 8004862:	f7ff ffec 	bl	800483e <BLS_Init>
 8004866:	f7ff ffeb 	bl	8004840 <CRS_STM_Init>
 800486a:	f7ff fc4d 	bl	8004108 <DIS_Init>
 800486e:	f7ff ffe8 	bl	8004842 <EDS_STM_Init>
 8004872:	f7ff ffe7 	bl	8004844 <HIDS_Init>
 8004876:	f7ff fdbb 	bl	80043f0 <HRS_Init>
 800487a:	f7ff ffe4 	bl	8004846 <HTS_Init>
 800487e:	f7ff ffe3 	bl	8004848 <IAS_Init>
 8004882:	f7ff ffe2 	bl	800484a <LLS_Init>
 8004886:	f7ff ffe1 	bl	800484c <TPS_Init>
 800488a:	f7ff ffe0 	bl	800484e <MOTENV_STM_Init>
 800488e:	f7ff ffdf 	bl	8004850 <P2PS_STM_Init>
 8004892:	f7ff ffde 	bl	8004852 <ZDD_STM_Init>
 8004896:	f7ff ffdd 	bl	8004854 <OTAS_STM_Init>
 800489a:	f7ff ffdd 	bl	8004858 <BVOPUS_STM_Init>
 800489e:	f7ff ffda 	bl	8004856 <MESH_Init>
 80048a2:	f7ff ffda 	bl	800485a <SVCCTL_InitCustomSvc>
 80048a6:	bd08      	pop	{r3, pc}

080048a8 <SVCCTL_Init>:
 80048a8:	b508      	push	{r3, lr}
 80048aa:	4b04      	ldr	r3, [pc, #16]	; (80048bc <SVCCTL_Init+0x14>)
 80048ac:	2200      	movs	r2, #0
 80048ae:	771a      	strb	r2, [r3, #28]
 80048b0:	f883 2020 	strb.w	r2, [r3, #32]
 80048b4:	f7ff ffd2 	bl	800485c <SVCCTL_SvcInit>
 80048b8:	bd08      	pop	{r3, pc}
 80048ba:	bf00      	nop
 80048bc:	20000054 	.word	0x20000054

080048c0 <SVCCTL_RegisterSvcHandler>:
 80048c0:	4a03      	ldr	r2, [pc, #12]	; (80048d0 <SVCCTL_RegisterSvcHandler+0x10>)
 80048c2:	7f13      	ldrb	r3, [r2, #28]
 80048c4:	f842 0023 	str.w	r0, [r2, r3, lsl #2]
 80048c8:	3301      	adds	r3, #1
 80048ca:	7713      	strb	r3, [r2, #28]
 80048cc:	4770      	bx	lr
 80048ce:	bf00      	nop
 80048d0:	20000054 	.word	0x20000054

080048d4 <SVCCTL_UserEvtRx>:
 80048d4:	b570      	push	{r4, r5, r6, lr}
 80048d6:	7843      	ldrb	r3, [r0, #1]
 80048d8:	2bff      	cmp	r3, #255	; 0xff
 80048da:	4604      	mov	r4, r0
 80048dc:	d004      	beq.n	80048e8 <SVCCTL_UserEvtRx+0x14>
 80048de:	4620      	mov	r0, r4
 80048e0:	e8bd 4070 	ldmia.w	sp!, {r4, r5, r6, lr}
 80048e4:	f7fc bd8c 	b.w	8001400 <SVCCTL_App_Notification>
 80048e8:	f8b0 3003 	ldrh.w	r3, [r0, #3]
 80048ec:	f403 437f 	and.w	r3, r3, #65280	; 0xff00
 80048f0:	f5b3 6f40 	cmp.w	r3, #3072	; 0xc00
 80048f4:	d1f3      	bne.n	80048de <SVCCTL_UserEvtRx+0xa>
 80048f6:	4e08      	ldr	r6, [pc, #32]	; (8004918 <SVCCTL_UserEvtRx+0x44>)
 80048f8:	2500      	movs	r5, #0
 80048fa:	7f32      	ldrb	r2, [r6, #28]
 80048fc:	b2eb      	uxtb	r3, r5
 80048fe:	429a      	cmp	r2, r3
 8004900:	d9ed      	bls.n	80048de <SVCCTL_UserEvtRx+0xa>
 8004902:	f856 3023 	ldr.w	r3, [r6, r3, lsl #2]
 8004906:	4620      	mov	r0, r4
 8004908:	4798      	blx	r3
 800490a:	3501      	adds	r5, #1
 800490c:	2800      	cmp	r0, #0
 800490e:	d0f4      	beq.n	80048fa <SVCCTL_UserEvtRx+0x26>
 8004910:	3802      	subs	r0, #2
 8004912:	bf18      	it	ne
 8004914:	2001      	movne	r0, #1
 8004916:	bd70      	pop	{r4, r5, r6, pc}
 8004918:	20000054 	.word	0x20000054

0800491c <SendFreeBuf>:
 800491c:	b537      	push	{r0, r1, r2, r4, r5, lr}
 800491e:	4c09      	ldr	r4, [pc, #36]	; (8004944 <SendFreeBuf+0x28>)
 8004920:	4d09      	ldr	r5, [pc, #36]	; (8004948 <SendFreeBuf+0x2c>)
 8004922:	4808      	ldr	r0, [pc, #32]	; (8004944 <SendFreeBuf+0x28>)
 8004924:	f7ff ff51 	bl	80047ca <LST_is_empty>
 8004928:	b108      	cbz	r0, 800492e <SendFreeBuf+0x12>
 800492a:	b003      	add	sp, #12
 800492c:	bd30      	pop	{r4, r5, pc}
 800492e:	a901      	add	r1, sp, #4
 8004930:	4620      	mov	r0, r4
 8004932:	f7ff ff77 	bl	8004824 <LST_remove_head>
 8004936:	692b      	ldr	r3, [r5, #16]
 8004938:	9901      	ldr	r1, [sp, #4]
 800493a:	6918      	ldr	r0, [r3, #16]
 800493c:	f7ff ff5b 	bl	80047f6 <LST_insert_tail>
 8004940:	e7ef      	b.n	8004922 <SendFreeBuf+0x6>
 8004942:	bf00      	nop
 8004944:	200005b8 	.word	0x200005b8
 8004948:	20030000 	.word	0x20030000

0800494c <TL_Enable>:
 800494c:	f7fc be66 	b.w	800161c <HW_IPCC_Enable>

08004950 <TL_Init>:
 8004950:	4b0f      	ldr	r3, [pc, #60]	; (8004990 <TL_Init+0x40>)
 8004952:	4a10      	ldr	r2, [pc, #64]	; (8004994 <TL_Init+0x44>)
 8004954:	f103 0120 	add.w	r1, r3, #32
 8004958:	6013      	str	r3, [r2, #0]
 800495a:	6051      	str	r1, [r2, #4]
 800495c:	f103 0130 	add.w	r1, r3, #48	; 0x30
 8004960:	6091      	str	r1, [r2, #8]
 8004962:	f103 0140 	add.w	r1, r3, #64	; 0x40
 8004966:	6211      	str	r1, [r2, #32]
 8004968:	f103 0148 	add.w	r1, r3, #72	; 0x48
 800496c:	6251      	str	r1, [r2, #36]	; 0x24
 800496e:	f103 0150 	add.w	r1, r3, #80	; 0x50
 8004972:	60d1      	str	r1, [r2, #12]
 8004974:	f103 0158 	add.w	r1, r3, #88	; 0x58
 8004978:	6111      	str	r1, [r2, #16]
 800497a:	f103 0174 	add.w	r1, r3, #116	; 0x74
 800497e:	6151      	str	r1, [r2, #20]
 8004980:	f103 0178 	add.w	r1, r3, #120	; 0x78
 8004984:	3384      	adds	r3, #132	; 0x84
 8004986:	6191      	str	r1, [r2, #24]
 8004988:	61d3      	str	r3, [r2, #28]
 800498a:	f7fc be6f 	b.w	800166c <HW_IPCC_Init>
 800498e:	bf00      	nop
 8004990:	20030134 	.word	0x20030134
 8004994:	20030000 	.word	0x20030000

08004998 <TL_BLE_Init>:
 8004998:	b538      	push	{r3, r4, r5, lr}
 800499a:	4d0c      	ldr	r5, [pc, #48]	; (80049cc <TL_BLE_Init+0x34>)
 800499c:	4604      	mov	r4, r0
 800499e:	4628      	mov	r0, r5
 80049a0:	f7ff ff10 	bl	80047c4 <LST_init_head>
 80049a4:	4b0a      	ldr	r3, [pc, #40]	; (80049d0 <TL_BLE_Init+0x38>)
 80049a6:	68a2      	ldr	r2, [r4, #8]
 80049a8:	685b      	ldr	r3, [r3, #4]
 80049aa:	601a      	str	r2, [r3, #0]
 80049ac:	68e2      	ldr	r2, [r4, #12]
 80049ae:	60da      	str	r2, [r3, #12]
 80049b0:	4a08      	ldr	r2, [pc, #32]	; (80049d4 <TL_BLE_Init+0x3c>)
 80049b2:	e9c3 2501 	strd	r2, r5, [r3, #4]
 80049b6:	f7fc fe79 	bl	80016ac <HW_IPCC_BLE_Init>
 80049ba:	4b07      	ldr	r3, [pc, #28]	; (80049d8 <TL_BLE_Init+0x40>)
 80049bc:	6822      	ldr	r2, [r4, #0]
 80049be:	601a      	str	r2, [r3, #0]
 80049c0:	4b06      	ldr	r3, [pc, #24]	; (80049dc <TL_BLE_Init+0x44>)
 80049c2:	6862      	ldr	r2, [r4, #4]
 80049c4:	601a      	str	r2, [r3, #0]
 80049c6:	2000      	movs	r0, #0
 80049c8:	bd38      	pop	{r3, r4, r5, pc}
 80049ca:	bf00      	nop
 80049cc:	200301c4 	.word	0x200301c4
 80049d0:	20030000 	.word	0x20030000
 80049d4:	20030a58 	.word	0x20030a58
 80049d8:	200005b4 	.word	0x200005b4
 80049dc:	200005b0 	.word	0x200005b0

080049e0 <TL_BLE_SendCmd>:
 80049e0:	b508      	push	{r3, lr}
 80049e2:	4b05      	ldr	r3, [pc, #20]	; (80049f8 <TL_BLE_SendCmd+0x18>)
 80049e4:	685a      	ldr	r2, [r3, #4]
 80049e6:	685b      	ldr	r3, [r3, #4]
 80049e8:	6812      	ldr	r2, [r2, #0]
 80049ea:	2101      	movs	r1, #1
 80049ec:	7211      	strb	r1, [r2, #8]
 80049ee:	f7fc fe65 	bl	80016bc <HW_IPCC_BLE_SendCmd>
 80049f2:	2000      	movs	r0, #0
 80049f4:	bd08      	pop	{r3, pc}
 80049f6:	bf00      	nop
 80049f8:	20030000 	.word	0x20030000

080049fc <HW_IPCC_BLE_RxEvtNot>:
 80049fc:	b537      	push	{r0, r1, r2, r4, r5, lr}
 80049fe:	4c08      	ldr	r4, [pc, #32]	; (8004a20 <HW_IPCC_BLE_RxEvtNot+0x24>)
 8004a00:	4d08      	ldr	r5, [pc, #32]	; (8004a24 <HW_IPCC_BLE_RxEvtNot+0x28>)
 8004a02:	4807      	ldr	r0, [pc, #28]	; (8004a20 <HW_IPCC_BLE_RxEvtNot+0x24>)
 8004a04:	f7ff fee1 	bl	80047ca <LST_is_empty>
 8004a08:	b108      	cbz	r0, 8004a0e <HW_IPCC_BLE_RxEvtNot+0x12>
 8004a0a:	b003      	add	sp, #12
 8004a0c:	bd30      	pop	{r4, r5, pc}
 8004a0e:	4620      	mov	r0, r4
 8004a10:	a901      	add	r1, sp, #4
 8004a12:	f7ff ff07 	bl	8004824 <LST_remove_head>
 8004a16:	682b      	ldr	r3, [r5, #0]
 8004a18:	9801      	ldr	r0, [sp, #4]
 8004a1a:	4798      	blx	r3
 8004a1c:	e7f1      	b.n	8004a02 <HW_IPCC_BLE_RxEvtNot+0x6>
 8004a1e:	bf00      	nop
 8004a20:	200301c4 	.word	0x200301c4
 8004a24:	200005b4 	.word	0x200005b4

08004a28 <HW_IPCC_BLE_AclDataAckNot>:
 8004a28:	4b01      	ldr	r3, [pc, #4]	; (8004a30 <HW_IPCC_BLE_AclDataAckNot+0x8>)
 8004a2a:	681b      	ldr	r3, [r3, #0]
 8004a2c:	4718      	bx	r3
 8004a2e:	bf00      	nop
 8004a30:	200005b0 	.word	0x200005b0

08004a34 <TL_SYS_Init>:
 8004a34:	b538      	push	{r3, r4, r5, lr}
 8004a36:	4d0a      	ldr	r5, [pc, #40]	; (8004a60 <TL_SYS_Init+0x2c>)
 8004a38:	4604      	mov	r4, r0
 8004a3a:	4628      	mov	r0, r5
 8004a3c:	f7ff fec2 	bl	80047c4 <LST_init_head>
 8004a40:	4b08      	ldr	r3, [pc, #32]	; (8004a64 <TL_SYS_Init+0x30>)
 8004a42:	68a2      	ldr	r2, [r4, #8]
 8004a44:	68db      	ldr	r3, [r3, #12]
 8004a46:	e9c3 2500 	strd	r2, r5, [r3]
 8004a4a:	f7fc fe3f 	bl	80016cc <HW_IPCC_SYS_Init>
 8004a4e:	4b06      	ldr	r3, [pc, #24]	; (8004a68 <TL_SYS_Init+0x34>)
 8004a50:	6822      	ldr	r2, [r4, #0]
 8004a52:	601a      	str	r2, [r3, #0]
 8004a54:	4b05      	ldr	r3, [pc, #20]	; (8004a6c <TL_SYS_Init+0x38>)
 8004a56:	6862      	ldr	r2, [r4, #4]
 8004a58:	601a      	str	r2, [r3, #0]
 8004a5a:	2000      	movs	r0, #0
 8004a5c:	bd38      	pop	{r3, r4, r5, pc}
 8004a5e:	bf00      	nop
 8004a60:	200301cc 	.word	0x200301cc
 8004a64:	20030000 	.word	0x20030000
 8004a68:	200005c0 	.word	0x200005c0
 8004a6c:	200005c4 	.word	0x200005c4

08004a70 <TL_SYS_SendCmd>:
 8004a70:	b508      	push	{r3, lr}
 8004a72:	4b05      	ldr	r3, [pc, #20]	; (8004a88 <TL_SYS_SendCmd+0x18>)
 8004a74:	68da      	ldr	r2, [r3, #12]
 8004a76:	68db      	ldr	r3, [r3, #12]
 8004a78:	6812      	ldr	r2, [r2, #0]
 8004a7a:	2110      	movs	r1, #16
 8004a7c:	7211      	strb	r1, [r2, #8]
 8004a7e:	f7fc fe2d 	bl	80016dc <HW_IPCC_SYS_SendCmd>
 8004a82:	2000      	movs	r0, #0
 8004a84:	bd08      	pop	{r3, pc}
 8004a86:	bf00      	nop
 8004a88:	20030000 	.word	0x20030000

08004a8c <HW_IPCC_SYS_CmdEvtNot>:
 8004a8c:	4b03      	ldr	r3, [pc, #12]	; (8004a9c <HW_IPCC_SYS_CmdEvtNot+0x10>)
 8004a8e:	68da      	ldr	r2, [r3, #12]
 8004a90:	68da      	ldr	r2, [r3, #12]
 8004a92:	4b03      	ldr	r3, [pc, #12]	; (8004aa0 <HW_IPCC_SYS_CmdEvtNot+0x14>)
 8004a94:	6810      	ldr	r0, [r2, #0]
 8004a96:	681b      	ldr	r3, [r3, #0]
 8004a98:	4718      	bx	r3
 8004a9a:	bf00      	nop
 8004a9c:	20030000 	.word	0x20030000
 8004aa0:	200005c0 	.word	0x200005c0

08004aa4 <HW_IPCC_SYS_EvtNot>:
 8004aa4:	b537      	push	{r0, r1, r2, r4, r5, lr}
 8004aa6:	4c08      	ldr	r4, [pc, #32]	; (8004ac8 <HW_IPCC_SYS_EvtNot+0x24>)
 8004aa8:	4d08      	ldr	r5, [pc, #32]	; (8004acc <HW_IPCC_SYS_EvtNot+0x28>)
 8004aaa:	4807      	ldr	r0, [pc, #28]	; (8004ac8 <HW_IPCC_SYS_EvtNot+0x24>)
 8004aac:	f7ff fe8d 	bl	80047ca <LST_is_empty>
 8004ab0:	b108      	cbz	r0, 8004ab6 <HW_IPCC_SYS_EvtNot+0x12>
 8004ab2:	b003      	add	sp, #12
 8004ab4:	bd30      	pop	{r4, r5, pc}
 8004ab6:	4620      	mov	r0, r4
 8004ab8:	a901      	add	r1, sp, #4
 8004aba:	f7ff feb3 	bl	8004824 <LST_remove_head>
 8004abe:	682b      	ldr	r3, [r5, #0]
 8004ac0:	9801      	ldr	r0, [sp, #4]
 8004ac2:	4798      	blx	r3
 8004ac4:	e7f1      	b.n	8004aaa <HW_IPCC_SYS_EvtNot+0x6>
 8004ac6:	bf00      	nop
 8004ac8:	200301cc 	.word	0x200301cc
 8004acc:	200005c4 	.word	0x200005c4

08004ad0 <TL_MM_Init>:
 8004ad0:	b538      	push	{r3, r4, r5, lr}
 8004ad2:	4d0c      	ldr	r5, [pc, #48]	; (8004b04 <TL_MM_Init+0x34>)
 8004ad4:	4604      	mov	r4, r0
 8004ad6:	4628      	mov	r0, r5
 8004ad8:	f7ff fe74 	bl	80047c4 <LST_init_head>
 8004adc:	480a      	ldr	r0, [pc, #40]	; (8004b08 <TL_MM_Init+0x38>)
 8004ade:	f7ff fe71 	bl	80047c4 <LST_init_head>
 8004ae2:	4b0a      	ldr	r3, [pc, #40]	; (8004b0c <TL_MM_Init+0x3c>)
 8004ae4:	68a2      	ldr	r2, [r4, #8]
 8004ae6:	691b      	ldr	r3, [r3, #16]
 8004ae8:	609a      	str	r2, [r3, #8]
 8004aea:	68e2      	ldr	r2, [r4, #12]
 8004aec:	e9c3 2503 	strd	r2, r5, [r3, #12]
 8004af0:	6822      	ldr	r2, [r4, #0]
 8004af2:	601a      	str	r2, [r3, #0]
 8004af4:	6862      	ldr	r2, [r4, #4]
 8004af6:	605a      	str	r2, [r3, #4]
 8004af8:	6922      	ldr	r2, [r4, #16]
 8004afa:	615a      	str	r2, [r3, #20]
 8004afc:	6962      	ldr	r2, [r4, #20]
 8004afe:	619a      	str	r2, [r3, #24]
 8004b00:	bd38      	pop	{r3, r4, r5, pc}
 8004b02:	bf00      	nop
 8004b04:	200301d4 	.word	0x200301d4
 8004b08:	200005b8 	.word	0x200005b8
 8004b0c:	20030000 	.word	0x20030000

08004b10 <TL_MM_EvtDone>:
 8004b10:	b508      	push	{r3, lr}
 8004b12:	4601      	mov	r1, r0
 8004b14:	4803      	ldr	r0, [pc, #12]	; (8004b24 <TL_MM_EvtDone+0x14>)
 8004b16:	f7ff fe6e 	bl	80047f6 <LST_insert_tail>
 8004b1a:	e8bd 4008 	ldmia.w	sp!, {r3, lr}
 8004b1e:	4802      	ldr	r0, [pc, #8]	; (8004b28 <TL_MM_EvtDone+0x18>)
 8004b20:	f7fc be1a 	b.w	8001758 <HW_IPCC_MM_SendFreeBuf>
 8004b24:	200005b8 	.word	0x200005b8
 8004b28:	0800491d 	.word	0x0800491d

08004b2c <TL_TRACES_Init>:
 8004b2c:	b510      	push	{r4, lr}
 8004b2e:	4c05      	ldr	r4, [pc, #20]	; (8004b44 <TL_TRACES_Init+0x18>)
 8004b30:	4620      	mov	r0, r4
 8004b32:	f7ff fe47 	bl	80047c4 <LST_init_head>
 8004b36:	4b04      	ldr	r3, [pc, #16]	; (8004b48 <TL_TRACES_Init+0x1c>)
 8004b38:	695b      	ldr	r3, [r3, #20]
 8004b3a:	601c      	str	r4, [r3, #0]
 8004b3c:	e8bd 4010 	ldmia.w	sp!, {r4, lr}
 8004b40:	f7fc be20 	b.w	8001784 <HW_IPCC_TRACES_Init>
 8004b44:	200301dc 	.word	0x200301dc
 8004b48:	20030000 	.word	0x20030000

08004b4c <TL_TRACES_EvtReceived>:
 8004b4c:	4770      	bx	lr
	...

08004b50 <HW_IPCC_TRACES_EvtNot>:
 8004b50:	b513      	push	{r0, r1, r4, lr}
 8004b52:	4c07      	ldr	r4, [pc, #28]	; (8004b70 <HW_IPCC_TRACES_EvtNot+0x20>)
 8004b54:	4806      	ldr	r0, [pc, #24]	; (8004b70 <HW_IPCC_TRACES_EvtNot+0x20>)
 8004b56:	f7ff fe38 	bl	80047ca <LST_is_empty>
 8004b5a:	b108      	cbz	r0, 8004b60 <HW_IPCC_TRACES_EvtNot+0x10>
 8004b5c:	b002      	add	sp, #8
 8004b5e:	bd10      	pop	{r4, pc}
 8004b60:	4620      	mov	r0, r4
 8004b62:	a901      	add	r1, sp, #4
 8004b64:	f7ff fe5e 	bl	8004824 <LST_remove_head>
 8004b68:	9801      	ldr	r0, [sp, #4]
 8004b6a:	f7ff ffef 	bl	8004b4c <TL_TRACES_EvtReceived>
 8004b6e:	e7f1      	b.n	8004b54 <HW_IPCC_TRACES_EvtNot+0x4>
 8004b70:	200301dc 	.word	0x200301dc

08004b74 <UTIL_LPM_Init>:
 8004b74:	4a02      	ldr	r2, [pc, #8]	; (8004b80 <UTIL_LPM_Init+0xc>)
 8004b76:	2300      	movs	r3, #0
 8004b78:	6013      	str	r3, [r2, #0]
 8004b7a:	4a02      	ldr	r2, [pc, #8]	; (8004b84 <UTIL_LPM_Init+0x10>)
 8004b7c:	6013      	str	r3, [r2, #0]
 8004b7e:	4770      	bx	lr
 8004b80:	200005cc 	.word	0x200005cc
 8004b84:	200005c8 	.word	0x200005c8

08004b88 <UTIL_LPM_SetOffMode>:
 8004b88:	b510      	push	{r4, lr}
 8004b8a:	f3ef 8410 	mrs	r4, PRIMASK
 8004b8e:	b672      	cpsid	i
 8004b90:	b141      	cbz	r1, 8004ba4 <UTIL_LPM_SetOffMode+0x1c>
 8004b92:	2901      	cmp	r1, #1
 8004b94:	d103      	bne.n	8004b9e <UTIL_LPM_SetOffMode+0x16>
 8004b96:	4a06      	ldr	r2, [pc, #24]	; (8004bb0 <UTIL_LPM_SetOffMode+0x28>)
 8004b98:	6813      	ldr	r3, [r2, #0]
 8004b9a:	4318      	orrs	r0, r3
 8004b9c:	6010      	str	r0, [r2, #0]
 8004b9e:	f384 8810 	msr	PRIMASK, r4
 8004ba2:	bd10      	pop	{r4, pc}
 8004ba4:	4a02      	ldr	r2, [pc, #8]	; (8004bb0 <UTIL_LPM_SetOffMode+0x28>)
 8004ba6:	6813      	ldr	r3, [r2, #0]
 8004ba8:	ea23 0000 	bic.w	r0, r3, r0
 8004bac:	e7f6      	b.n	8004b9c <UTIL_LPM_SetOffMode+0x14>
 8004bae:	bf00      	nop
 8004bb0:	200005c8 	.word	0x200005c8

08004bb4 <UTIL_LPM_EnterLowPower>:
 8004bb4:	b538      	push	{r3, r4, r5, lr}
 8004bb6:	f3ef 8510 	mrs	r5, PRIMASK
 8004bba:	b672      	cpsid	i
 8004bbc:	4b0a      	ldr	r3, [pc, #40]	; (8004be8 <UTIL_LPM_EnterLowPower+0x34>)
 8004bbe:	4c0b      	ldr	r4, [pc, #44]	; (8004bec <UTIL_LPM_EnterLowPower+0x38>)
 8004bc0:	681b      	ldr	r3, [r3, #0]
 8004bc2:	b133      	cbz	r3, 8004bd2 <UTIL_LPM_EnterLowPower+0x1e>
 8004bc4:	6823      	ldr	r3, [r4, #0]
 8004bc6:	4798      	blx	r3
 8004bc8:	6863      	ldr	r3, [r4, #4]
 8004bca:	4798      	blx	r3
 8004bcc:	f385 8810 	msr	PRIMASK, r5
 8004bd0:	bd38      	pop	{r3, r4, r5, pc}
 8004bd2:	4b07      	ldr	r3, [pc, #28]	; (8004bf0 <UTIL_LPM_EnterLowPower+0x3c>)
 8004bd4:	681b      	ldr	r3, [r3, #0]
 8004bd6:	b11b      	cbz	r3, 8004be0 <UTIL_LPM_EnterLowPower+0x2c>
 8004bd8:	68a3      	ldr	r3, [r4, #8]
 8004bda:	4798      	blx	r3
 8004bdc:	68e3      	ldr	r3, [r4, #12]
 8004bde:	e7f4      	b.n	8004bca <UTIL_LPM_EnterLowPower+0x16>
 8004be0:	6923      	ldr	r3, [r4, #16]
 8004be2:	4798      	blx	r3
 8004be4:	6963      	ldr	r3, [r4, #20]
 8004be6:	e7f0      	b.n	8004bca <UTIL_LPM_EnterLowPower+0x16>
 8004be8:	200005cc 	.word	0x200005cc
 8004bec:	0800509c 	.word	0x0800509c
 8004bf0:	200005c8 	.word	0x200005c8

08004bf4 <UTIL_SEQ_SetTask>:
 8004bf4:	b510      	push	{r4, lr}
 8004bf6:	f3ef 8410 	mrs	r4, PRIMASK
 8004bfa:	b672      	cpsid	i
 8004bfc:	4a06      	ldr	r2, [pc, #24]	; (8004c18 <UTIL_SEQ_SetTask+0x24>)
 8004bfe:	6813      	ldr	r3, [r2, #0]
 8004c00:	4303      	orrs	r3, r0
 8004c02:	6013      	str	r3, [r2, #0]
 8004c04:	4a05      	ldr	r2, [pc, #20]	; (8004c1c <UTIL_SEQ_SetTask+0x28>)
 8004c06:	f852 3031 	ldr.w	r3, [r2, r1, lsl #3]
 8004c0a:	4318      	orrs	r0, r3
 8004c0c:	f842 0031 	str.w	r0, [r2, r1, lsl #3]
 8004c10:	f384 8810 	msr	PRIMASK, r4
 8004c14:	bd10      	pop	{r4, pc}
 8004c16:	bf00      	nop
 8004c18:	2000066c 	.word	0x2000066c
 8004c1c:	2000065c 	.word	0x2000065c

08004c20 <UTIL_SEQ_PauseTask>:
 8004c20:	f3ef 8110 	mrs	r1, PRIMASK
 8004c24:	b672      	cpsid	i
 8004c26:	4a04      	ldr	r2, [pc, #16]	; (8004c38 <UTIL_SEQ_PauseTask+0x18>)
 8004c28:	6813      	ldr	r3, [r2, #0]
 8004c2a:	ea23 0000 	bic.w	r0, r3, r0
 8004c2e:	6010      	str	r0, [r2, #0]
 8004c30:	f381 8810 	msr	PRIMASK, r1
 8004c34:	4770      	bx	lr
 8004c36:	bf00      	nop
 8004c38:	20000034 	.word	0x20000034

08004c3c <UTIL_SEQ_ResumeTask>:
 8004c3c:	f3ef 8110 	mrs	r1, PRIMASK
 8004c40:	b672      	cpsid	i
 8004c42:	4a03      	ldr	r2, [pc, #12]	; (8004c50 <UTIL_SEQ_ResumeTask+0x14>)
 8004c44:	6813      	ldr	r3, [r2, #0]
 8004c46:	4318      	orrs	r0, r3
 8004c48:	6010      	str	r0, [r2, #0]
 8004c4a:	f381 8810 	msr	PRIMASK, r1
 8004c4e:	4770      	bx	lr
 8004c50:	20000034 	.word	0x20000034

08004c54 <UTIL_SEQ_SetEvt>:
 8004c54:	f3ef 8110 	mrs	r1, PRIMASK
 8004c58:	b672      	cpsid	i
 8004c5a:	4a03      	ldr	r2, [pc, #12]	; (8004c68 <UTIL_SEQ_SetEvt+0x14>)
 8004c5c:	6813      	ldr	r3, [r2, #0]
 8004c5e:	4318      	orrs	r0, r3
 8004c60:	6010      	str	r0, [r2, #0]
 8004c62:	f381 8810 	msr	PRIMASK, r1
 8004c66:	4770      	bx	lr
 8004c68:	200005d4 	.word	0x200005d4

08004c6c <UTIL_SEQ_PreIdle>:
 8004c6c:	4770      	bx	lr

08004c6e <UTIL_SEQ_PostIdle>:
 8004c6e:	4770      	bx	lr

08004c70 <SEQ_BitPosition>:
 8004c70:	0c03      	lsrs	r3, r0, #16
 8004c72:	041b      	lsls	r3, r3, #16
 8004c74:	b9c3      	cbnz	r3, 8004ca8 <SEQ_BitPosition+0x38>
 8004c76:	0400      	lsls	r0, r0, #16
 8004c78:	2310      	movs	r3, #16
 8004c7a:	f010 4f7f 	tst.w	r0, #4278190080	; 0xff000000
 8004c7e:	bf02      	ittt	eq
 8004c80:	3308      	addeq	r3, #8
 8004c82:	0200      	lsleq	r0, r0, #8
 8004c84:	b2db      	uxtbeq	r3, r3
 8004c86:	f010 4f70 	tst.w	r0, #4026531840	; 0xf0000000
 8004c8a:	bf08      	it	eq
 8004c8c:	0100      	lsleq	r0, r0, #4
 8004c8e:	4a07      	ldr	r2, [pc, #28]	; (8004cac <SEQ_BitPosition+0x3c>)
 8004c90:	ea4f 7010 	mov.w	r0, r0, lsr #28
 8004c94:	bf08      	it	eq
 8004c96:	3304      	addeq	r3, #4
 8004c98:	5c10      	ldrb	r0, [r2, r0]
 8004c9a:	bf08      	it	eq
 8004c9c:	b2db      	uxtbeq	r3, r3
 8004c9e:	f1c3 031f 	rsb	r3, r3, #31
 8004ca2:	1a18      	subs	r0, r3, r0
 8004ca4:	b2c0      	uxtb	r0, r0
 8004ca6:	4770      	bx	lr
 8004ca8:	2300      	movs	r3, #0
 8004caa:	e7e6      	b.n	8004c7a <SEQ_BitPosition+0xa>
 8004cac:	08005170 	.word	0x08005170

08004cb0 <UTIL_SEQ_Run>:
 8004cb0:	e92d 4ff8 	stmdb	sp!, {r3, r4, r5, r6, r7, r8, r9, sl, fp, lr}
 8004cb4:	4d40      	ldr	r5, [pc, #256]	; (8004db8 <UTIL_SEQ_Run+0x108>)
 8004cb6:	4e41      	ldr	r6, [pc, #260]	; (8004dbc <UTIL_SEQ_Run+0x10c>)
 8004cb8:	f8d5 8000 	ldr.w	r8, [r5]
 8004cbc:	f8df b10c 	ldr.w	fp, [pc, #268]	; 8004dcc <UTIL_SEQ_Run+0x11c>
 8004cc0:	f8df a10c 	ldr.w	sl, [pc, #268]	; 8004dd0 <UTIL_SEQ_Run+0x120>
 8004cc4:	f8df 910c 	ldr.w	r9, [pc, #268]	; 8004dd4 <UTIL_SEQ_Run+0x124>
 8004cc8:	f8d6 e000 	ldr.w	lr, [r6]
 8004ccc:	4f3c      	ldr	r7, [pc, #240]	; (8004dc0 <UTIL_SEQ_Run+0x110>)
 8004cce:	f8db 1000 	ldr.w	r1, [fp]
 8004cd2:	4c3c      	ldr	r4, [pc, #240]	; (8004dc4 <UTIL_SEQ_Run+0x114>)
 8004cd4:	ea08 0000 	and.w	r0, r8, r0
 8004cd8:	6028      	str	r0, [r5, #0]
 8004cda:	f8da 0000 	ldr.w	r0, [sl]
 8004cde:	f8d9 3000 	ldr.w	r3, [r9]
 8004ce2:	682a      	ldr	r2, [r5, #0]
 8004ce4:	ea02 0c00 	and.w	ip, r2, r0
 8004ce8:	ea1c 0f0e 	tst.w	ip, lr
 8004cec:	d044      	beq.n	8004d78 <UTIL_SEQ_Run+0xc8>
 8004cee:	400b      	ands	r3, r1
 8004cf0:	d142      	bne.n	8004d78 <UTIL_SEQ_Run+0xc8>
 8004cf2:	6821      	ldr	r1, [r4, #0]
 8004cf4:	400a      	ands	r2, r1
 8004cf6:	4202      	tst	r2, r0
 8004cf8:	d101      	bne.n	8004cfe <UTIL_SEQ_Run+0x4e>
 8004cfa:	68a3      	ldr	r3, [r4, #8]
 8004cfc:	2301      	movs	r3, #1
 8004cfe:	f854 2033 	ldr.w	r2, [r4, r3, lsl #3]
 8004d02:	00d9      	lsls	r1, r3, #3
 8004d04:	eb04 03c3 	add.w	r3, r4, r3, lsl #3
 8004d08:	ea0c 0202 	and.w	r2, ip, r2
 8004d0c:	6858      	ldr	r0, [r3, #4]
 8004d0e:	4210      	tst	r0, r2
 8004d10:	bf08      	it	eq
 8004d12:	f04f 30ff 	moveq.w	r0, #4294967295
 8004d16:	4421      	add	r1, r4
 8004d18:	bf08      	it	eq
 8004d1a:	6058      	streq	r0, [r3, #4]
 8004d1c:	6848      	ldr	r0, [r1, #4]
 8004d1e:	4010      	ands	r0, r2
 8004d20:	f7ff ffa6 	bl	8004c70 <SEQ_BitPosition>
 8004d24:	684b      	ldr	r3, [r1, #4]
 8004d26:	6038      	str	r0, [r7, #0]
 8004d28:	2201      	movs	r2, #1
 8004d2a:	fa02 f000 	lsl.w	r0, r2, r0
 8004d2e:	ea23 0000 	bic.w	r0, r3, r0
 8004d32:	6048      	str	r0, [r1, #4]
 8004d34:	f3ef 8110 	mrs	r1, PRIMASK
 8004d38:	b672      	cpsid	i
 8004d3a:	683b      	ldr	r3, [r7, #0]
 8004d3c:	fa02 f303 	lsl.w	r3, r2, r3
 8004d40:	6832      	ldr	r2, [r6, #0]
 8004d42:	ea22 0203 	bic.w	r2, r2, r3
 8004d46:	6032      	str	r2, [r6, #0]
 8004d48:	68a2      	ldr	r2, [r4, #8]
 8004d4a:	ea22 0203 	bic.w	r2, r2, r3
 8004d4e:	60a2      	str	r2, [r4, #8]
 8004d50:	6822      	ldr	r2, [r4, #0]
 8004d52:	ea22 0303 	bic.w	r3, r2, r3
 8004d56:	6023      	str	r3, [r4, #0]
 8004d58:	f381 8810 	msr	PRIMASK, r1
 8004d5c:	4a1a      	ldr	r2, [pc, #104]	; (8004dc8 <UTIL_SEQ_Run+0x118>)
 8004d5e:	683b      	ldr	r3, [r7, #0]
 8004d60:	f852 3023 	ldr.w	r3, [r2, r3, lsl #2]
 8004d64:	4798      	blx	r3
 8004d66:	f8d6 e000 	ldr.w	lr, [r6]
 8004d6a:	f8db 1000 	ldr.w	r1, [fp]
 8004d6e:	f8da 0000 	ldr.w	r0, [sl]
 8004d72:	f8d9 3000 	ldr.w	r3, [r9]
 8004d76:	e7b4      	b.n	8004ce2 <UTIL_SEQ_Run+0x32>
 8004d78:	f04f 33ff 	mov.w	r3, #4294967295
 8004d7c:	603b      	str	r3, [r7, #0]
 8004d7e:	f7ff ff75 	bl	8004c6c <UTIL_SEQ_PreIdle>
 8004d82:	f3ef 8410 	mrs	r4, PRIMASK
 8004d86:	b672      	cpsid	i
 8004d88:	6833      	ldr	r3, [r6, #0]
 8004d8a:	f8db 2000 	ldr.w	r2, [fp]
 8004d8e:	f8da 1000 	ldr.w	r1, [sl]
 8004d92:	400b      	ands	r3, r1
 8004d94:	6829      	ldr	r1, [r5, #0]
 8004d96:	420b      	tst	r3, r1
 8004d98:	d105      	bne.n	8004da6 <UTIL_SEQ_Run+0xf6>
 8004d9a:	f8d9 3000 	ldr.w	r3, [r9]
 8004d9e:	4213      	tst	r3, r2
 8004da0:	d101      	bne.n	8004da6 <UTIL_SEQ_Run+0xf6>
 8004da2:	f7fb fbfd 	bl	80005a0 <UTIL_SEQ_Idle>
 8004da6:	f384 8810 	msr	PRIMASK, r4
 8004daa:	f7ff ff60 	bl	8004c6e <UTIL_SEQ_PostIdle>
 8004dae:	f8c5 8000 	str.w	r8, [r5]
 8004db2:	e8bd 8ff8 	ldmia.w	sp!, {r3, r4, r5, r6, r7, r8, r9, sl, fp, pc}
 8004db6:	bf00      	nop
 8004db8:	20000030 	.word	0x20000030
 8004dbc:	2000066c 	.word	0x2000066c
 8004dc0:	200005d0 	.word	0x200005d0
 8004dc4:	2000065c 	.word	0x2000065c
 8004dc8:	200005dc 	.word	0x200005dc
 8004dcc:	200005d4 	.word	0x200005d4
 8004dd0:	20000034 	.word	0x20000034
 8004dd4:	200005d8 	.word	0x200005d8

08004dd8 <UTIL_SEQ_WaitEvt>:
 8004dd8:	e92d 47f0 	stmdb	sp!, {r4, r5, r6, r7, r8, r9, sl, lr}
 8004ddc:	f8df 9058 	ldr.w	r9, [pc, #88]	; 8004e38 <UTIL_SEQ_WaitEvt+0x60>
 8004de0:	4e13      	ldr	r6, [pc, #76]	; (8004e30 <UTIL_SEQ_WaitEvt+0x58>)
 8004de2:	f8d9 8000 	ldr.w	r8, [r9]
 8004de6:	4f13      	ldr	r7, [pc, #76]	; (8004e34 <UTIL_SEQ_WaitEvt+0x5c>)
 8004de8:	f8d6 a000 	ldr.w	sl, [r6]
 8004dec:	6030      	str	r0, [r6, #0]
 8004dee:	f1b8 3fff 	cmp.w	r8, #4294967295
 8004df2:	bf18      	it	ne
 8004df4:	2501      	movne	r5, #1
 8004df6:	4604      	mov	r4, r0
 8004df8:	bf14      	ite	ne
 8004dfa:	fa05 f508 	lslne.w	r5, r5, r8
 8004dfe:	2500      	moveq	r5, #0
 8004e00:	683b      	ldr	r3, [r7, #0]
 8004e02:	4223      	tst	r3, r4
 8004e04:	d00e      	beq.n	8004e24 <UTIL_SEQ_WaitEvt+0x4c>
 8004e06:	f8c9 8000 	str.w	r8, [r9]
 8004e0a:	f3ef 8310 	mrs	r3, PRIMASK
 8004e0e:	b672      	cpsid	i
 8004e10:	6838      	ldr	r0, [r7, #0]
 8004e12:	ea20 0004 	bic.w	r0, r0, r4
 8004e16:	6038      	str	r0, [r7, #0]
 8004e18:	f383 8810 	msr	PRIMASK, r3
 8004e1c:	f8c6 a000 	str.w	sl, [r6]
 8004e20:	e8bd 87f0 	ldmia.w	sp!, {r4, r5, r6, r7, r8, r9, sl, pc}
 8004e24:	4621      	mov	r1, r4
 8004e26:	4628      	mov	r0, r5
 8004e28:	f7fb fbbc 	bl	80005a4 <UTIL_SEQ_EvtIdle>
 8004e2c:	e7e8      	b.n	8004e00 <UTIL_SEQ_WaitEvt+0x28>
 8004e2e:	bf00      	nop
 8004e30:	200005d8 	.word	0x200005d8
 8004e34:	200005d4 	.word	0x200005d4
 8004e38:	200005d0 	.word	0x200005d0

08004e3c <UTIL_SEQ_RegTask>:
 8004e3c:	b510      	push	{r4, lr}
 8004e3e:	4611      	mov	r1, r2
 8004e40:	f3ef 8410 	mrs	r4, PRIMASK
 8004e44:	b672      	cpsid	i
 8004e46:	f7ff ff13 	bl	8004c70 <SEQ_BitPosition>
 8004e4a:	4b03      	ldr	r3, [pc, #12]	; (8004e58 <UTIL_SEQ_RegTask+0x1c>)
 8004e4c:	f843 1020 	str.w	r1, [r3, r0, lsl #2]
 8004e50:	f384 8810 	msr	PRIMASK, r4
 8004e54:	bd10      	pop	{r4, pc}
 8004e56:	bf00      	nop
 8004e58:	200005dc 	.word	0x200005dc

08004e5c <__libc_init_array>:
 8004e5c:	b570      	push	{r4, r5, r6, lr}
 8004e5e:	4d0d      	ldr	r5, [pc, #52]	; (8004e94 <__libc_init_array+0x38>)
 8004e60:	4c0d      	ldr	r4, [pc, #52]	; (8004e98 <__libc_init_array+0x3c>)
 8004e62:	1b64      	subs	r4, r4, r5
 8004e64:	10a4      	asrs	r4, r4, #2
 8004e66:	2600      	movs	r6, #0
 8004e68:	42a6      	cmp	r6, r4
 8004e6a:	d109      	bne.n	8004e80 <__libc_init_array+0x24>
 8004e6c:	4d0b      	ldr	r5, [pc, #44]	; (8004e9c <__libc_init_array+0x40>)
 8004e6e:	4c0c      	ldr	r4, [pc, #48]	; (8004ea0 <__libc_init_array+0x44>)
 8004e70:	f000 f82e 	bl	8004ed0 <_init>
 8004e74:	1b64      	subs	r4, r4, r5
 8004e76:	10a4      	asrs	r4, r4, #2
 8004e78:	2600      	movs	r6, #0
 8004e7a:	42a6      	cmp	r6, r4
 8004e7c:	d105      	bne.n	8004e8a <__libc_init_array+0x2e>
 8004e7e:	bd70      	pop	{r4, r5, r6, pc}
 8004e80:	f855 3b04 	ldr.w	r3, [r5], #4
 8004e84:	4798      	blx	r3
 8004e86:	3601      	adds	r6, #1
 8004e88:	e7ee      	b.n	8004e68 <__libc_init_array+0xc>
 8004e8a:	f855 3b04 	ldr.w	r3, [r5], #4
 8004e8e:	4798      	blx	r3
 8004e90:	3601      	adds	r6, #1
 8004e92:	e7f2      	b.n	8004e7a <__libc_init_array+0x1e>
 8004e94:	08005180 	.word	0x08005180
 8004e98:	08005180 	.word	0x08005180
 8004e9c:	08005180 	.word	0x08005180
 8004ea0:	08005184 	.word	0x08005184

08004ea4 <memcpy>:
 8004ea4:	440a      	add	r2, r1
 8004ea6:	4291      	cmp	r1, r2
 8004ea8:	f100 33ff 	add.w	r3, r0, #4294967295
 8004eac:	d100      	bne.n	8004eb0 <memcpy+0xc>
 8004eae:	4770      	bx	lr
 8004eb0:	b510      	push	{r4, lr}
 8004eb2:	f811 4b01 	ldrb.w	r4, [r1], #1
 8004eb6:	f803 4f01 	strb.w	r4, [r3, #1]!
 8004eba:	4291      	cmp	r1, r2
 8004ebc:	d1f9      	bne.n	8004eb2 <memcpy+0xe>
 8004ebe:	bd10      	pop	{r4, pc}

08004ec0 <memset>:
 8004ec0:	4402      	add	r2, r0
 8004ec2:	4603      	mov	r3, r0
 8004ec4:	4293      	cmp	r3, r2
 8004ec6:	d100      	bne.n	8004eca <memset+0xa>
 8004ec8:	4770      	bx	lr
 8004eca:	f803 1b01 	strb.w	r1, [r3], #1
 8004ece:	e7f9      	b.n	8004ec4 <memset+0x4>

08004ed0 <_init>:
 8004ed0:	b5f8      	push	{r3, r4, r5, r6, r7, lr}
 8004ed2:	bf00      	nop
 8004ed4:	bcf8      	pop	{r3, r4, r5, r6, r7}
 8004ed6:	bc08      	pop	{r3}
 8004ed8:	469e      	mov	lr, r3
 8004eda:	4770      	bx	lr

08004edc <_fini>:
 8004edc:	b5f8      	push	{r3, r4, r5, r6, r7, lr}
 8004ede:	bf00      	nop
 8004ee0:	bcf8      	pop	{r3, r4, r5, r6, r7}
 8004ee2:	bc08      	pop	{r3}
 8004ee4:	469e      	mov	lr, r3
 8004ee6:	4770      	bx	lr
